(lp0
Vyes
p1
aVno
p2
aV2
p3
aV1
p4
aVwhite
p5
aV3
p6
aVred
p7
aVblue
p8
aV0
p9
aVblack
p10
aV4
p11
aVbrown
p12
aVgreen
p13
aVyellow
p14
aV5
p15
aVgray
p16
aVnothing
p17
aVright
p18
aVleft
p19
aVbaseball
p20
aVfrisbee
p21
aVorange
p22
aVnone
p23
aV6
p24
aVtennis
p25
aVwood
p26
aVdog
p27
aVcat
p28
aVpink
p29
aVpizza
p30
aVbathroom
p31
aVkitchen
p32
aVman
p33
aVgrass
p34
aV10
p35
aV7
p36
aV8
p37
aVwater
p38
aVskateboarding
p39
aVskiing
p40
aVwoman
p41
aVfood
p42
aVskateboard
p43
aVtable
p44
aVkite
p45
aVblack and white
p46
aVsitting
p47
aVstanding
p48
aVsilver
p49
aVsurfing
p50
aVliving room
p51
aVapple
p52
aVsunny
p53
aVsoccer
p54
aVhorse
p55
aVphone
p56
aVwine
p57
aVeating
p58
aVsnow
p59
aVwii
p60
aVgiraffe
p61
aVsurfboard
p62
aVcake
p63
aVpurple
p64
aVbroccoli
p65
aVhat
p66
aVstop
p67
aVwalking
p68
aVlaptop
p69
aV12
p70
aVelephant
p71
aV9
p72
aVtrain
p73
aVtan
p74
aVsheep
p75
aVcouch
p76
aVbench
p77
aVsnowboarding
p78
aVfloor
p79
aVbeach
p80
aVflowers
p81
aVmotorcycle
p82
aVmale
p83
aVbanana
p84
aVbus
p85
aVbird
p86
aVtrees
p87
aVcow
p88
aVfemale
p89
aVwinter
p90
aVumbrella
p91
aV20
p92
aVbike
p93
aVbear
p94
aVtree
p95
aVcamera
p96
aVtv
p97
aVgirl
p98
aVboy
p99
aVchair
p100
aVsandwich
p101
aVclear
p102
aVcar
p103
aVtile
p104
aVmetal
p105
aVoutside
p106
aV11
p107
aVred and white
p108
aVmany
p109
aVwall
p110
aVbrick
p111
aVsummer
p112
aVhot dog
p113
aVplaying
p114
aVbed
p115
aVcheese
p116
aVsand
p117
aVplane
p118
aVdonut
p119
aVcloudy
p120
aVsleeping
p121
aVnight
p122
aVdown
p123
aVbananas
p124
aVzebra
p125
aVplate
p126
aVno one
p127
aVteddy bear
p128
aVbat
p129
aVfence
p130
aVpeople
p131
aVbedroom
p132
aVkites
p133
aV15
p134
aVfork
p135
aVhelmet
p136
aVpicture
p137
aVhorses
p138
aVball
p139
aVbeer
p140
aVskis
p141
aVboat
p142
aVrug
p143
aVplant
p144
aVafternoon
p145
aVbirthday
p146
aVsun
p147
aVstreet
p148
aVsidewalk
p149
aVblanket
p150
aVup
p151
aVcows
p152
aVglass
p153
aVcoffee
p154
aVsquare
p155
aVfootball
p156
aVtruck
p157
aVtennis racket
p158
aVbuilding
p159
aVdirt
p160
aV25
p161
aVzoo
p162
aVsuitcase
p163
aVstripes
p164
aVconcrete
p165
aVground
p166
aVpark
p167
aVairport
p168
aVsnowboard
p169
aVsky
p170
aVday
p171
aVold
p172
aVround
p173
aV13
p174
aVnike
p175
aVhappy
p176
aVusa
p177
aVfruit
p178
aVblonde
p179
aVocean
p180
aVfish
p181
aVknife
p182
aVwatermelon
p183
aVplaying wii
p184
aVcity
p185
aVbook
p186
aVfall
p187
aVopen
p188
aVbaby
p189
aVfloral
p190
aVairplane
p191
aVplastic
p192
aVenglish
p193
aVchristmas
p194
aVcarrots
p195
aVtie
p196
aVwindow
p197
aVoak
p198
aVcooking
p199
aVtoilet
p200
aVscissors
p201
aVlog
p202
aVflying kite
p203
aVmouse
p204
aVglasses
p205
aVapples
p206
aVblue and white
p207
aVevening
p208
aVchinese
p209
aVtoothbrush
p210
aVcold
p211
aVpaper
p212
aVovercast
p213
aVremote
p214
aVdonuts
p215
aVon table
p216
aVchicken
p217
aVbirds
p218
aVafrica
p219
aV30
p220
aVrectangle
p221
aVclouds
p222
aVwii remote
p223
aVclosed
p224
aVclock
p225
aVshirt
p226
aVnowhere
p227
aVbreakfast
p228
aVbeige
p229
aVstool
p230
aVchocolate
p231
aVstone
p232
aVplaid
p233
aVdell
p234
aVmountains
p235
aVlight
p236
aVjumping
p237
aVdaytime
p238
aVoffice
p239
aVnoon
p240
aVlettuce
p241
aVcell phone
p242
aVshort
p243
aVpalm
p244
aV50
p245
aVvegetables
p246
aVmountain
p247
aVmirror
p248
aV14
p249
aVfield
p250
aVrestaurant
p251
aVspoon
p252
aVsolid
p253
aVski poles
p254
aVelephants
p255
aVtomato
p256
aVsunset
p257
aV16
p258
aVresting
p259
aVsalad
p260
aVperson
p261
aVcarpet
p262
aVunknown
p263
aVscooter
p264
aVpie
p265
aVsunglasses
p266
aVmonkey bars
p267
aVfire hydrant
p268
aVcomputer
p269
aVsmall
p270
aVleaves
p271
aVcounter
p272
aVwedding
p273
aVcheckered
p274
aVbone
p275
aVamerican
p276
aVwetsuit
p277
aVshorts
p278
aVdesk
p279
aVoranges
p280
aVhouse
p281
aVpine
p282
aVhome
p283
aVfire
p284
aVdinner
p285
aVduck
p286
aVbooks
p287
aVengland
p288
aVsign
p289
aVmorning
p290
aVlot
p291
aVgold
p292
aVbread
p293
aVinside
p294
aVcolor
p295
aVvery
p296
aVsandbox
p297
aVsteak
p298
aVmicrowave
p299
aVboth
p300
aVpolice
p301
aV100
p302
aVpassenger
p303
aVasian
p304
aVrunning
p305
aVbicycle
p306
aVbackpack
p307
aVluggage
p308
aVhair
p309
aVflower
p310
aVmilk
p311
aVmiddle
p312
aVsquirrel
p313
aVpepperoni
p314
aVbrown and white
p315
aVyarn
p316
aVglove
p317
aVcircle
p318
aVcarrot
p319
aVrocks
p320
aVlondon
p321
aVjeans
p322
aVfireplace
p323
aVzebras
p324
aVplaying tennis
p325
aVsink
p326
aVdrinking
p327
aV24
p328
aVgraffiti
p329
aVcatcher
p330
aVbowl
p331
aVrainbow
p332
aVcup
p333
aV18
p334
aVpond
p335
aVbag
p336
aVvase
p337
aVtowel
p338
aVsoup
p339
aVsafety
p340
aVflying
p341
aVchild
p342
aVspinach
p343
aVon wall
p344
aVgiraffes
p345
aVbasket
p346
aVsoccer ball
p347
aVbox
p348
aVin air
p349
aVbrushing teeth
p350
aVwii controller
p351
aVhay
p352
aVwatch
p353
aVrain
p354
aVroad
p355
aVrefrigerator
p356
aVracket
p357
aVtriangle
p358
aVon
p359
aVtalking on phone
p360
aVspring
p361
aVreal
p362
aVjacket
p363
aVwindows
p364
aVreading
p365
aVneither
p366
aVdeer
p367
aVbeehive
p368
aVbackground
p369
aVtalking
p370
aVhand
p371
aVmotorcycles
p372
aVchina
p373
aVadidas
p374
aVstriped
p375
aVpillow
p376
aVyoung
p377
aVwilson
p378
aVelectric
p379
aVsneakers
p380
aVlights
p381
aVdessert
p382
aVsmiling
p383
aVnew york
p384
aVcars
p385
aVhot dogs
p386
aVshoes
p387
aVroses
p388
aVducks
p389
aVchurch
p390
aVrainy
p391
aVpictures
p392
aVeagle
p393
aVbridge
p394
aVplaying frisbee
p395
aVlunch
p396
aVlogs
p397
aVtea
p398
aVdancing
p399
aVsandals
p400
aVon left
p401
aVlab
p402
aVwhite and blue
p403
aVleather
p404
aVkite flying
p405
aVketchup
p406
aVgas
p407
aVdoor
p408
aVcontroller
p409
aVumbrellas
p410
aVbutterfly
p411
aVkeyboard
p412
aVin water
p413
aVpole
p414
aVon ground
p415
aVcollar
p416
aVwire
p417
aVtexting
p418
aVtabby
p419
aVcoca cola
p420
aVslide
p421
aVshadow
p422
aVseagull
p423
aVbatter
p424
aVpitcher
p425
aVgrazing
p426
aVumpire
p427
aVrose
p428
aVrope
p429
aVrock
p430
aVpeppers
p431
aVoff
p432
aVmeat
p433
aVheart
p434
aVtaking off
p435
aVshelf
p436
aVposing
p437
aVlarge
p438
aVgood
p439
aVgoggles
p440
aVclothes
p441
aVbottle
p442
aVstove
p443
aVphotographer
p444
aVowl
p445
aVhead
p446
aVlamp
p447
aVcanada
p448
aVsoda
p449
aVfront
p450
aVforward
p451
aVsurfboards
p452
aVtop
p453
aVribs
p454
aVlong
p455
aVdouble decker
p456
aVwatching tv
p457
aVraccoon
p458
aVpurse
p459
aVlake
p460
aV17
p461
aVtrain station
p462
aVriver
p463
aVelectricity
p464
aVwarm
p465
aVtennis court
p466
aVoven
p467
aVturtle
p468
aVtracks
p469
aVstraight
p470
aVon floor
p471
aVmushrooms
p472
aVwine glass
p473
aVrabbit
p474
aVboots
p475
aVbears
p476
aVparking
p477
aVlaying down
p478
aVhot
p479
aVshade
p480
aVlemon
p481
aVgloves
p482
aVdoll
p483
aVdecoration
p484
aVadult
p485
aVtoilet paper
p486
aVred and blue
p487
aVoval
p488
aVjet
p489
aVdaisy
p490
aVclean
p491
aVtoy
p492
aVtaking picture
p493
aVolives
p494
aVindoors
p495
aVhotel
p496
aVceramic
p497
aVbranch
p498
aVplants
p499
aVorange and white
p500
aVnew
p501
aVcalm
p502
aVwater skiing
p503
aVswimming
p504
aVponytail
p505
aVplaying baseball
p506
aVpaint
p507
aVford
p508
aVbottom
p509
aVvan
p510
aVskate park
p511
aVparking meter
p512
aVparking lot
p513
aVon plate
p514
aVdownhill
p515
aVdining room
p516
aVblocks
p517
aVvanilla
p518
aVred and yellow
p519
aVpigtails
p520
aVmustard
p521
aVmodern
p522
aVdelta
p523
aVaway
p524
aVstop sign
p525
aVschool
p526
aVnorth
p527
aVlanding
p528
aVflag
p529
aVdogs
p530
aVcutting board
p531
aVbikes
p532
aVwaving
p533
aVfries
p534
aVboats
p535
aV40
p536
aVtomatoes
p537
aVcoat rack
p538
aVcargo
p539
aVwind
p540
aVriding
p541
aVrice
p542
aVon couch
p543
aVbush
p544
aVa
p545
aV200
p546
aVturkey
p547
aVsmoke
p548
aVbucket
p549
aVblinds
p550
aVbeef
p551
aVunited
p552
aVgrill
p553
aVcurtains
p554
aVasphalt
p555
aVair
p556
aV21
p557
aVwatching
p558
aVtoys
p559
aVscarf
p560
aVrobot
p561
aVred and black
p562
aVoutdoors
p563
aVguitar
p564
aVceiling
p565
aVbatting
p566
aVwork
p567
aVprotection
p568
aVorange juice
p569
aVon grass
p570
aVham
p571
aVblue and yellow
p572
aVtrash can
p573
aVtennis ball
p574
aVstar
p575
aVraining
p576
aVpicnic
p577
aVpepsi
p578
aVnecklace
p579
aVmen
p580
aVgreen and yellow
p581
aVgreen and white
p582
aVstrawberry
p583
aVpug
p584
aVmarshmallows
p585
aVheadband
p586
aVhamburger
p587
aVclay
p588
aVurban
p589
aVstrawberries
p590
aVskateboards
p591
aVsausage
p592
aVsamsung
p593
aVhuman
p594
aVflying kites
p595
aVeggs
p596
aVwhite and black
p597
aVsteam
p598
aVsmile
p599
aVslow
p600
aVramp
p601
aVpainting
p602
aVon desk
p603
aVice cream
p604
aVgo
p605
aVfishing
p606
aV2 feet
p607
aVyellow and blue
p608
aVsuit
p609
aVsteel
p610
aVplanes
p611
aVmoon
p612
aVhandle
p613
aVfan
p614
aVchairs
p615
aVblender
p616
aVwild
p617
aVtower
p618
aVski
p619
aVgranite
p620
aVfridge
p621
aVwooden
p622
aVskateboarder
p623
aVone way
p624
aVjump rope
p625
aVindia
p626
aVhelmets
p627
aVdirty
p628
aVdiamond
p629
aVcloud
p630
aVchihuahua
p631
aVcarriage
p632
aVbracelet
p633
aVback
p634
aVabove
p635
aVwhite and red
p636
aVstuffed animal
p637
aVshovel
p638
aVsad
p639
aVbees
p640
aVbacon
p641
aVstore
p642
aVpolo
p643
aVmilitary
p644
aVhats
p645
aVdusk
p646
aVdry
p647
aVcats
p648
aVnobody
p649
aVmushroom
p650
aVmarble
p651
aVhit ball
p652
aVfull
p653
aVcutting
p654
aVcorn
p655
aVsweater
p656
aVsugar
p657
aVparasailing
p658
aVoctagon
p659
aVnest
p660
aVhonda
p661
aVhigh
p662
aVhands
p663
aVclock tower
p664
aVapartment
p665
aV22
p666
aVtrash
p667
aVterrier
p668
aVsandwiches
p669
aVmercedes
p670
aVmarket
p671
aVcotton
p672
aVcollie
p673
aVtulips
p674
aVsparrow
p675
aVp
p676
aVon bed
p677
aVnapkin
p678
aVgrapes
p679
aVdress
p680
aVdodgers
p681
aVcloth
p682
aVcatching
p683
aVcandles
p684
aVamerica
p685
aV27
p686
aV23
p687
aV19
p688
aVtired
p689
aVshower
p690
aVpillows
p691
aVno parking
p692
aVjumping rope
p693
aVfarm
p694
aVeast
p695
aVdunkin donuts
p696
aVunited states
p697
aVseesaw
p698
aVpot
p699
aVplain
p700
aVparty
p701
aVparade
p702
aVonions
p703
aVmantle
p704
aVfork and knife
p705
aVflip flops
p706
aVbricks
p707
aVbicycles
p708
aVstainless steel
p709
aVpoles
p710
aVpolar
p711
aVpasta
p712
aVparrot
p713
aVlow
p714
aVcoke
p715
aVbig
p716
aVbeard
p717
aVtransportation
p718
aVreflection
p719
aVparked
p720
aVheadphones
p721
aVgray and white
p722
aVgone
p723
aVcutting cake
p724
aVcross
p725
aVcowboy
p726
aVbutter
p727
aVbalance
p728
aVat camera
p729
aV28
p730
aVpen
p731
aVpants
p732
aVon right
p733
aVharley
p734
aVgame
p735
aVfrog
p736
aVchef
p737
aVbushes
p738
aVbasketball
p739
aVb
p740
aVstairs
p741
aVski lift
p742
aVsauce
p743
aVon blanket
p744
aVmedium
p745
aVkoi
p746
aVjump
p747
aVi don't know
p748
aVcurtain
p749
aVboston
p750
aVbaseball bat
p751
aVall
p752
aV38
p753
aV35
p754
aVyellow and white
p755
aVwaves
p756
aVsurfer
p757
aVstraw
p758
aVsliding
p759
aVred and green
p760
aVpotatoes
p761
aVpolar bear
p762
aVon sidewalk
p763
aVkids
p764
aVfedora
p765
aVfedex
p766
aVdock
p767
aVbig ben
p768
aVbar
p769
aVbakery
p770
aVtea set
p771
aVpublic
p772
aVpigeon
p773
aVon rug
p774
aVnighttime
p775
aVgerman shepherd
p776
aVface
p777
aVbusiness
p778
aVbow
p779
aVbmw
p780
aVbehind
p781
aVasia
p782
aV10 feet
p783
aVtwin
p784
aVtray
p785
aVtongs
p786
aVsurf
p787
aVseagulls
p788
aVpepper
p789
aVparsley
p790
aVmarshmallow
p791
aVlaughing
p792
aVfrance
p793
aVair canada
p794
aVafrican
p795
aVwhite and brown
p796
aVw
p797
aVsoap
p798
aVring
p799
aVpan
p800
aVlittle
p801
aVlaying
p802
aVjuice
p803
aVgerman
p804
aVfire truck
p805
aVcement
p806
aVcabinet
p807
aVart
p808
aVanimals
p809
aV3 feet
p810
aVworking
p811
aVwool
p812
aVtyping
p813
aVtoast
p814
aVtall
p815
aVsuv
p816
aVstation
p817
aVsprinkles
p818
aVsouth
p819
aVporcelain
p820
aVon counter
p821
aVmoving
p822
aVjapan
p823
aVitaly
p824
aVindian
p825
aVhydrant
p826
aVfrosting
p827
aVfamily
p828
aVdollhouse
p829
aVchopsticks
p830
aVchain link
p831
aVbowling
p832
aVbandana
p833
aVwest
p834
aVtoyota
p835
aVtowels
p836
aVteddy bears
p837
aVswan
p838
aVsailboat
p839
aVmagnets
p840
aVlighthouse
p841
aVgolden retriever
p842
aVforest
p843
aVfast
p844
aVdriving
p845
aVdark
p846
aVdaisies
p847
aVcumulus
p848
aVcart
p849
aVc
p850
aVbuildings
p851
aVarm
p852
aVyellow and red
p853
aVwaiting
p854
aVsunlight
p855
aVroof
p856
aVpaddle
p857
aVottoman
p858
aVmulti
p859
aVkia
p860
aVhungry
p861
aVfake
p862
aVchicago
p863
aVwomen
p864
aVwalk
p865
aVvisor
p866
aVtag
p867
aVstarbucks
p868
aVserving
p869
aVred white and blue
p870
aVpork
p871
aVnatural
p872
aVit's not
p873
aVin bowl
p874
aVgrilling
p875
aVfriends
p876
aVdowntown
p877
aVcalifornia
p878
aV55
p879
aV45
p880
aVunder tree
p881
aVunder table
p882
aVtraffic
p883
aVsony
p884
aVsigns
p885
aVshallow
p886
aVsetting
p887
aVserve
p888
aVrunway
p889
aVqueen
p890
aVplaying game
p891
aVmozzarella
p892
aVmcdonald's
p893
aVlegos
p894
aVitalian
p895
aVgiants
p896
aVempty
p897
aVcrosswalk
p898
aVcleaning
p899
aVbulldog
p900
aVbottles
p901
aVbags
p902
aVvest
p903
aVvertical
p904
aVswinging
p905
aVstuffed animals
p906
aVstick
p907
aVshoe
p908
aVroman
p909
aVplaying soccer
p910
aVone on right
p911
aVnavy
p912
aVmuseum
p913
aVkrispy kreme
p914
aVkiwi
p915
aVharley davidson
p916
aVcommercial
p917
aVcigarette
p918
aVcalico
p919
aVbutterflies
p920
aVbun
p921
aVblack and red
p922
aVbasil
p923
aV26
p924
aVvery tall
p925
aVtank top
p926
aVtablecloth
p927
aVskirt
p928
aVsiamese
p929
aVsan francisco
p930
aVpoodle
p931
aVpickle
p932
aVphones
p933
aVout
p934
aVnet
p935
aVmonkey
p936
aVmicrophone
p937
aVlots
p938
aVlooking
p939
aVhalloween
p940
aVfun
p941
aVfriend
p942
aVfrench
p943
aVfinch
p944
aVemirates
p945
aVegg
p946
aVdesert
p947
aVbroken
p948
aVtennis rackets
p949
aVt
p950
aVplates
p951
aVorioles
p952
aVnot possible
p953
aVflags
p954
aVfabric
p955
aVdrink
p956
aVcucumber
p957
aVcrane
p958
aVcookies
p959
aVcherry
p960
aVcandy
p961
aVcandle
p962
aVbus stop
p963
aVboxes
p964
aVblack and yellow
p965
aVbaseball field
p966
aV60
p967
aVyellow and black
p968
aVwords
p969
aVwet
p970
aVwashington
p971
aVstatue
p972
aVspanish
p973
aVsmoothie
p974
aVrural
p975
aVoutdoor
p976
aVon building
p977
aVon bench
p978
aVnorth america
p979
aVnewspaper
p980
aVlap
p981
aVgravel
p982
aVgermany
p983
aVgarbage
p984
aVfell
p985
aVdesktop
p986
aVcleats
p987
aVchips
p988
aVcenter
p989
aVbookshelf
p990
aVbaseball cap
p991
aVabcd
p992
aV29
p993
aVwires
p994
aVwave
p995
aVwagon
p996
aVsuitcases
p997
aVstring
p998
aVskier
p999
aVshrimp
p1000
aVred sox
p1001
aVprivate
p1002
aVpizza cutter
p1003
aVpineapple
p1004
aVnokia
p1005
aVmonitor
p1006
aVmask
p1007
aVmaple
p1008
aVlufthansa
p1009
aVlilies
p1010
aVlibrary
p1011
aVlaptops
p1012
aVjeep
p1013
aVin front
p1014
aVgreen beans
p1015
aVgoat
p1016
aVcone
p1017
aVchildren
p1018
aVbrush
p1019
aVboating
p1020
aVbell
p1021
aVapron
p1022
aVwhite and gray
p1023
aVuphill
p1024
aVtiger
p1025
aVtennis player
p1026
aVstorage
p1027
aVsoftball
p1028
aVsee saw
p1029
aVsaddle
p1030
aVrelaxing
p1031
aVracing
p1032
aVplay
p1033
aVpelican
p1034
aVon tracks
p1035
aVon street
p1036
aVin sky
p1037
aVhp
p1038
aVhalf
p1039
aVhair dryer
p1040
aVgothic
p1041
aVfrench fries
p1042
aVforeground
p1043
aVeurope
p1044
aVcorner
p1045
aVcatching frisbee
p1046
aVbeans
p1047
aVbeanie
p1048
aV2010
p1049
aVwheat
p1050
aVthin
p1051
aVtattoo
p1052
aVsubway
p1053
aVsquares
p1054
aVsnowy
p1055
aVskating
p1056
aVreins
p1057
aVregular
p1058
aVrailing
p1059
aVplaster
p1060
aVpetting
p1061
aVoil
p1062
aVmutt
p1063
aVladder
p1064
aVgarage
p1065
aVfur
p1066
aVfoil
p1067
aVeat
p1068
aVdishes
p1069
aVcross country
p1070
aVcountry
p1071
aVcones
p1072
aVburger
p1073
aVair force
p1074
aV34
p1075
aVyamaha
p1076
aVwicker
p1077
aVwashington dc
p1078
aVtraveling
p1079
aVtown
p1080
aVtow truck
p1081
aVthrowing
p1082
aVtaxi
p1083
aVtail
p1084
aVt-shirt
p1085
aVs
p1086
aVroman numerals
p1087
aVpigeons
p1088
aVpeace
p1089
aVon pole
p1090
aVobama
p1091
aVnot very
p1092
aVmessy
p1093
aVmain
p1094
aVhorns
p1095
aVhorizontal
p1096
aVhello kitty
p1097
aVharness
p1098
aVeyes
p1099
aVengine
p1100
aVdugout
p1101
aVdrywall
p1102
aVcups
p1103
aVboxing
p1104
aVblue and red
p1105
aVarmy
p1106
aV5 years
p1107
aV32
p1108
aV10:20
p1109
aVwristband
p1110
aVvideo game
p1111
aVunsure
p1112
aVtowards
p1113
aVspatula
p1114
aVscreen
p1115
aVriding bike
p1116
aVpitbull
p1117
aVpeas
p1118
aVleash
p1119
aVland
p1120
aVin tree
p1121
aVhusky
p1122
aVglazed
p1123
aVgirls
p1124
aVfoggy
p1125
aVfirst
p1126
aVe
p1127
aVcircles
p1128
aVcan
p1129
aVboys
p1130
aVbikini
p1131
aVbehind tree
p1132
aVbegging
p1133
aV33
p1134
aV2012
p1135
aVyankees
p1136
aVwindow sill
p1137
aVwii remotes
p1138
aVwhite and green
p1139
aVvegetable
p1140
aVtelevision
p1141
aVski pole
p1142
aVshadows
p1143
aVpropeller
p1144
aVpickles
p1145
aVpassengers
p1146
aVonion
p1147
aVon shelf
p1148
aVno number
p1149
aVlegs
p1150
aVgeese
p1151
aVfreight
p1152
aVflat
p1153
aVfeet
p1154
aVcoat
p1155
aVcasual
p1156
aVcardboard
p1157
aVblue and green
p1158
aVbelt
p1159
aVbank of america
p1160
aVasparagus
p1161
aV12:00
p1162
aVx
p1163
aVwoods
p1164
aVwine bottle
p1165
aVwii controllers
p1166
aVwater bottle
p1167
aVvans
p1168
aVtoothbrushes
p1169
aVsweet
p1170
aVsofa
p1171
aVsnowboarder
p1172
aVsleep
p1173
aVshelves
p1174
aVselfie
p1175
aVpots
p1176
aVpitching
p1177
aVpier
p1178
aVno dog
p1179
aVneck
p1180
aVmug
p1181
aVmouth
p1182
aVmexican
p1183
aVm
p1184
aVlogo
p1185
aVlabrador
p1186
aVkayaking
p1187
aVhouses
p1188
aVholding it
p1189
aVhill
p1190
aVfalling
p1191
aVevergreen
p1192
aVelm
p1193
aVdresser
p1194
aVdots
p1195
aVdishwasher
p1196
aVcupcakes
p1197
aVchandelier
p1198
aVcell phones
p1199
aVbull
p1200
aVbelow
p1201
aVadults
p1202
aV2016
p1203
aVvent
p1204
aVvases
p1205
aVtraffic light
p1206
aVtoaster oven
p1207
aVtoaster
p1208
aVsushi
p1209
aVsocks
p1210
aVsanta
p1211
aVpower lines
p1212
aVpig
p1213
aVpeach
p1214
aVowner
p1215
aVon road
p1216
aVmotorola
p1217
aVmotocross
p1218
aVmap
p1219
aVman on right
p1220
aVlove
p1221
aVlion
p1222
aVletters
p1223
aVgas station
p1224
aVdo not enter
p1225
aVclimbing
p1226
aVcardinals
p1227
aVcamouflage
p1228
aVbritish airways
p1229
aVblack and gray
p1230
aVbeagle
p1231
aVbathtub
p1232
aVbarbed wire
p1233
aVaustralia
p1234
aVacross street
p1235
aV70
p1236
aV5 feet
p1237
aV44
p1238
aV4 feet
p1239
aV3:00
p1240
aVyield
p1241
aVwine glasses
p1242
aVvolleyball
p1243
aVtusks
p1244
aVtractor
p1245
aVtennis shoes
p1246
aVt shirt
p1247
aVscared
p1248
aVrail
p1249
aVpoor
p1250
aVpink and white
p1251
aVpavement
p1252
aVone on left
p1253
aVon tower
p1254
aVon chair
p1255
aVnuts
p1256
aVnintendo
p1257
aVlid
p1258
aVlg
p1259
aVkitten
p1260
aVkickstand
p1261
aVin pond
p1262
aVice
p1263
aVgreen and red
p1264
aVdad
p1265
aVcord
p1266
aVcook
p1267
aVcomputers
p1268
aVcheesecake
p1269
aVchain
p1270
aVcereal
p1271
aVcelery
p1272
aVcaution
p1273
aVcamo
p1274
aVbritish
p1275
aVboogie board
p1276
aVbib
p1277
aVbarn
p1278
aVabstract
p1279
aV31
p1280
aV2000
p1281
aV150
p1282
aVyellow and green
p1283
aVwindy
p1284
aVweeds
p1285
aVutensils
p1286
aVtire
p1287
aVteddy
p1288
aVsunrise
p1289
aVstreet sign
p1290
aVstreet light
p1291
aVstars
p1292
aVstand
p1293
aVsnowboards
p1294
aVpolka dot
p1295
aVpointing
p1296
aVplaying with dog
p1297
aVpancakes
p1298
aVnoodles
p1299
aVmustache
p1300
aVmulticolored
p1301
aVlily pads
p1302
aVlily
p1303
aVhospital
p1304
aVferry
p1305
aVcurly
p1306
aVconstruction
p1307
aVcoffee maker
p1308
aVchase
p1309
aVburgers
p1310
aVbathing
p1311
aVbackhand
p1312
aVair france
p1313
aVaccident
p1314
aV43
p1315
aV2011
p1316
aV20 feet
p1317
aV1:05
p1318
aV12:30
p1319
aVwarning
p1320
aVtrunk
p1321
aVtoward
p1322
aVtime
p1323
aVties
p1324
aVsupreme
p1325
aVsunflower
p1326
aVstroller
p1327
aVsteaks
p1328
aVsquash
p1329
aVship
p1330
aVrodeo
p1331
aVribbon
p1332
aVprivacy
p1333
aVpotato
p1334
aVpilot
p1335
aVpiano
p1336
aVpastries
p1337
aVpanda
p1338
aVmotor
p1339
aVman's
p1340
aVman on left
p1341
aVlos angeles
p1342
aVkayak
p1343
aVicing
p1344
aVhawk
p1345
aVgrapefruit
p1346
aVgoing
p1347
aVgoats
p1348
aVfoot
p1349
aVeaster
p1350
aVcupcake
p1351
aVcoal
p1352
aVcat and dog
p1353
aVcan't tell
p1354
aVcabbage
p1355
aVbright
p1356
aVblue and black
p1357
aVbiking
p1358
aVbehind fence
p1359
aVavocado
p1360
aVarrow
p1361
aVantique
p1362
aVabove sink
p1363
aV6 feet
p1364
aV2013
p1365
aV100 feet
p1366
aVwhite and orange
p1367
aVveggie
p1368
aVtrucks
p1369
aVtravel
p1370
aVtop left
p1371
aVtongue
p1372
aVthrowing frisbee
p1373
aVsteps
p1374
aVspeaker
p1375
aVskull
p1376
aVshepherd
p1377
aVshearing
p1378
aVsalmon
p1379
aVrack
p1380
aVpolka dots
p1381
aVostrich
p1382
aVmom
p1383
aVmac
p1384
aVknee pads
p1385
aVhighway
p1386
aVhappiness
p1387
aVhandicap
p1388
aVgrilled
p1389
aVgoogle
p1390
aVfree
p1391
aVfly kite
p1392
aVfluorescent
p1393
aVdirt bike
p1394
aVcap
p1395
aVbrown and black
p1396
aVbowtie
p1397
aVbow tie
p1398
aVblueberries
p1399
aVbleachers
p1400
aV39
p1401
aV1 foot
p1402
aVxbox
p1403
aVvolkswagen
p1404
aVunder window
p1405
aVtrailer
p1406
aVtoothpaste
p1407
aVto left
p1408
aVtissues
p1409
aVteeth
p1410
aVtablet
p1411
aVsunflowers
p1412
aVstripe
p1413
aVstretching
p1414
aVstickers
p1415
aVsoft
p1416
aVski resort
p1417
aVseattle
p1418
aVseat
p1419
aVschool bus
p1420
aVride
p1421
aVradiator
p1422
aVpool
p1423
aVpm
p1424
aVoveralls
p1425
aVmusic
p1426
aVmovie
p1427
aVmoss
p1428
aVloading
p1429
aVlistening
p1430
aVlines
p1431
aVleaving
p1432
aVlamb
p1433
aVl
p1434
aVjockey
p1435
aVjapanese
p1436
aVin field
p1437
aVin background
p1438
aVibm
p1439
aVhorse racing
p1440
aVhoodie
p1441
aVholding hands
p1442
aVherding
p1443
aVhappy birthday
p1444
aVgreyhound
p1445
aVgreen and orange
p1446
aVgravy
p1447
aVgoalie
p1448
aVflorida
p1449
aVfighting
p1450
aVfern
p1451
aVfaucet
p1452
aVfar
p1453
aVelectronics
p1454
aVdalmatian
p1455
aVchiquita
p1456
aVcd
p1457
aVcabinets
p1458
aVbuses
p1459
aVbud light
p1460
aVboarding
p1461
aVblurry
p1462
aVberries
p1463
aVbenches
p1464
aVabove stove
p1465
aV65
p1466
aV3:55
p1467
aV37
p1468
aV12:15
p1469
aV10:00
p1470
aVwindsurfing
p1471
aVwhite and yellow
p1472
aVus
p1473
aVtheater
p1474
aVtent
p1475
aVtaking pictures
p1476
aVtags
p1477
aVstrap
p1478
aVstopped
p1479
aVstools
p1480
aVsouthwest
p1481
aVsliced
p1482
aVsize
p1483
aVsedan
p1484
aVpower
p1485
aVphillies
p1486
aVpapers
p1487
aVon top
p1488
aVolder
p1489
aVold man
p1490
aVnose
p1491
aVmoney
p1492
aVmice
p1493
aVmexico
p1494
aVmagazine
p1495
aVlily pad
p1496
aVlexus
p1497
aVleaf
p1498
aVlanyard
p1499
aVlandscape
p1500
aVkneeling
p1501
aVklm
p1502
aVking
p1503
aVindoor
p1504
aVin car
p1505
aVin
p1506
aVidentification
p1507
aVhood
p1508
aVheels
p1509
aVhanging
p1510
aVgrizzly
p1511
aVgatorade
p1512
aVformal
p1513
aVf
p1514
aVdrinks
p1515
aVdirections
p1516
aVdirection
p1517
aVdead
p1518
aVcut
p1519
aVcubs
p1520
aVcookie
p1521
aVchina airlines
p1522
aVchevrolet
p1523
aVcane
p1524
aVby tree
p1525
aVbritain
p1526
aVbamboo
p1527
aVbackwards
p1528
aVarch
p1529
aVamerican flag
p1530
aV75
p1531
aV42
p1532
aV41
p1533
aV12:55
p1534
aV10:10
p1535
aVyoga
p1536
aVtub
p1537
aVtrack
p1538
aVtop right
p1539
aVtoothpick
p1540
aVtokyo
p1541
aVto see
p1542
aVthick
p1543
aVsuzuki
p1544
aVspoons
p1545
aVroast beef
p1546
aVright one
p1547
aVred bull
p1548
aVred and gray
p1549
aVposter
p1550
aVplaying video games
p1551
aVplatform
p1552
aVpeacock
p1553
aVpajamas
p1554
aVorange and black
p1555
aVon sink
p1556
aVoctopus
p1557
aVnot there
p1558
aVnot sure
p1559
aVnews
p1560
aVmenu
p1561
aVmaple leaf
p1562
aVkhaki
p1563
aVkettle
p1564
aVjetblue
p1565
aVivy
p1566
aVipod
p1567
aVin basket
p1568
aVhimself
p1569
aVhelicopter
p1570
aVhard
p1571
aVharbor
p1572
aVgoose
p1573
aVgarden
p1574
aVfresh
p1575
aVfor sale
p1576
aVfog
p1577
aVflour
p1578
aVfarmer
p1579
aVears
p1580
aVdriveway
p1581
aVdragon
p1582
aVdoubles
p1583
aVdon't know
p1584
aVdenim
p1585
aVdeep
p1586
aVcrow
p1587
aVcoming
p1588
aVcolgate
p1589
aVcoach
p1590
aVclothing
p1591
aVchristmas tree
p1592
aVbroadway
p1593
aVbridle
p1594
aVbob
p1595
aVblinders
p1596
aVbad
p1597
aVawake
p1598
aVasleep
p1599
aVarriving
p1600
aValuminum
p1601
aV6:00
p1602
aV5:40
p1603
aV53
p1604
aV48
p1605
aV36
p1606
aV2:35
p1607
aV1:55
p1608
aV11:30
p1609
aVwetsuits
p1610
aVwebsite
p1611
aVvery old
p1612
aVv
p1613
aVuniforms
p1614
aVuniform
p1615
aVtulip
p1616
aVtrain tracks
p1617
aVtowing
p1618
aVthanksgiving
p1619
aVtexas
p1620
aVswing
p1621
aVsweatshirt
p1622
aVsmaller
p1623
aVsingles
p1624
aVshopping
p1625
aVshirts
p1626
aVsemi
p1627
aVsail
p1628
aVsafari
p1629
aVrobin
p1630
aVrelish
p1631
aVraw
p1632
aVr
p1633
aVpowdered sugar
p1634
aVplaying on monkey bars
p1635
aVpink and yellow
p1636
aVphoto
p1637
aVpetting cat
p1638
aVpc
p1639
aVorange and blue
p1640
aVon man
p1641
aVnissan
p1642
aVmother
p1643
aVmohawk
p1644
aVmitt
p1645
aVmaroon
p1646
aVlime
p1647
aVlife
p1648
aVlasagna
p1649
aVlady
p1650
aVjoshua
p1651
aViron
p1652
aVhuge
p1653
aVhoney
p1654
aVfor fun
p1655
aVfisheye
p1656
aVexit
p1657
aVdole
p1658
aVdining
p1659
aVcroissant
p1660
aVcream
p1661
aVcooked
p1662
aVconference
p1663
aVcoats
p1664
aVcatch
p1665
aVcasserole
p1666
aVcalendar
p1667
aVbunk
p1668
aVbudweiser
p1669
aVbrushing
p1670
aVbranches
p1671
aVbike rack
p1672
aVballs
p1673
aVbagel
p1674
aVarabic
p1675
aVairplanes
p1676
aV9:30
p1677
aV66
p1678
aV6 inches
p1679
aV5:05
p1680
aV1:30
p1681
aV12 feet
p1682
aV1000
p1683
aV10 years
p1684
aVwriting
p1685
aVweather vane
p1686
aVwallpaper
p1687
aVvalentine's day
p1688
aVurinal
p1689
aVtuna
p1690
aVtoilets
p1691
aVtiles
p1692
aVtape
p1693
aVsurprise
p1694
aVstones
p1695
aVspectators
p1696
aVspeakers
p1697
aVsoon
p1698
aVsmooth
p1699
aVsideways
p1700
aVsiblings
p1701
aVshut
p1702
aVshore
p1703
aVrooster
p1704
aVriding horse
p1705
aVresidential
p1706
aVraspberries
p1707
aVram
p1708
aVradio
p1709
aVrace
p1710
aVpocket
p1711
aVplaystation
p1712
aVplay tennis
p1713
aVpizza hut
p1714
aVphotography
p1715
aVparis
p1716
aVpaisley
p1717
aVpaintings
p1718
aVon his head
p1719
aVolympics
p1720
aVnorth face
p1721
aVno hat
p1722
aVno cat
p1723
aVn
p1724
aVmouse pad
p1725
aVmound
p1726
aVmotel
p1727
aVmercedes-benz
p1728
aVmen's
p1729
aVmagazines
p1730
aVlooking out window
p1731
aVleopard
p1732
aVlemons
p1733
aVleg
p1734
aVleft one
p1735
aVleft and right
p1736
aVknives
p1737
aVkitesurfing
p1738
aVketchup and mustard
p1739
aVjets
p1740
aViphone
p1741
aVindex
p1742
aVin box
p1743
aVholding
p1744
aVhiking
p1745
aVhearts
p1746
aVhawaiian
p1747
aVhammer time
p1748
aVgrocery
p1749
aVgrandfather
p1750
aVgaming
p1751
aVfried
p1752
aVfoam
p1753
aVear
p1754
aVdonkey
p1755
aVdog bed
p1756
aVdiamonds
p1757
aVdesign
p1758
aVdead end
p1759
aVd
p1760
aVcurb
p1761
aVcrown
p1762
aVcrib
p1763
aVcouple
p1764
aVcomcast
p1765
aVcobblestone
p1766
aVclub
p1767
aVcloset
p1768
aVchili
p1769
aVcanoe
p1770
aVblue and gray
p1771
aVblackberry
p1772
aVbehind cloud
p1773
aVbaseball glove
p1774
aVballoon
p1775
aVapartments
p1776
aV80
p1777
aV5:00
p1778
aV47
p1779
aV350
p1780
aV300
p1781
aV2:50
p1782
aV1:15
p1783
aV12:05
p1784
aV1 hour
p1785
aVyogurt
p1786
aVwindowsill
p1787
aVvisibility
p1788
aVvery high
p1789
aVus airways
p1790
aVtraffic lights
p1791
aVtools
p1792
aVto eat
p1793
aVsweatband
p1794
aVsmiley face
p1795
aVside
p1796
aVshower curtain
p1797
aVshoulder
p1798
aVshih tzu
p1799
aVsepia
p1800
aVsalt
p1801
aVrugby
p1802
aVroasting marshmallows
p1803
aVright side
p1804
aVriding motorcycle
p1805
aVreferee
p1806
aVreds
p1807
aVred, white, blue
p1808
aVrays
p1809
aVrackets
p1810
aVpumpkin
p1811
aVprom
p1812
aVpitch
p1813
aVping pong
p1814
aVpenguin
p1815
aVpeeing
p1816
aVpedestrians
p1817
aVpainted
p1818
aVpaddle boarding
p1819
aVover
p1820
aVorange and yellow
p1821
aVone in front
p1822
aVon train
p1823
aVon track
p1824
aVon skateboard
p1825
aVon mantle
p1826
aVollie
p1827
aVno 1
p1828
aVnightstand
p1829
aVnever
p1830
aVnature
p1831
aVmud
p1832
aVmotion
p1833
aVmeatballs
p1834
aVman and woman
p1835
aVmacaroni
p1836
aVlogitech
p1837
aVlicense plate
p1838
aVk
p1839
aVinformation
p1840
aVin vase
p1841
aVhummingbird
p1842
aVhomemade
p1843
aVhealthy
p1844
aVhe's not
p1845
aVhazy
p1846
aVh
p1847
aVglobe
p1848
aVglaze
p1849
aVge
p1850
aVg
p1851
aVfurniture
p1852
aVfruits
p1853
aVfly
p1854
aVflip phone
p1855
aVflip
p1856
aVflickr
p1857
aVfeeding
p1858
aVend
p1859
aVearrings
p1860
aVeach other
p1861
aVdrinking wine
p1862
aVdrain
p1863
aVdog and cat
p1864
aVdetroit
p1865
aVdecorative
p1866
aVcurved
p1867
aVcurious
p1868
aVcrocs
p1869
aVcontinental
p1870
aVconductor
p1871
aVcoffee table
p1872
aVclocks
p1873
aVcircus
p1874
aVchoppy
p1875
aVcatch frisbee
p1876
aVcatch ball
p1877
aVcaptivity
p1878
aVcactus
p1879
aVby window
p1880
aVby door
p1881
aVburton
p1882
aVbuoy
p1883
aVbunny
p1884
aVbrushing hair
p1885
aVbottom right
p1886
aVblue jay
p1887
aVblue and pink
p1888
aVblack and brown
p1889
aVbats
p1890
aVbase
p1891
aVamtrak
p1892
aValaska
p1893
aVadvertisement
p1894
aVabove fireplace
p1895
aV9:45
p1896
aV8 feet
p1897
aV500
p1898
aV4:50
p1899
aV46
p1900
aV2:25
p1901
aV2009
p1902
aV1990
p1903
aV10:55
p1904
aV10:05
p1905
aV106
p1906
aVzebra and giraffe
p1907
aVwireless
p1908
aVwine tasting
p1909
aVwillow
p1910
aVwide
p1911
aVwheelchair
p1912
aVwestjet
p1913
aVwallet
p1914
aVvictorian
p1915
aVus airways express
p1916
aVturtles
p1917
aVtropical
p1918
aVtrains
p1919
aVtoilet brush
p1920
aVtissue
p1921
aVtie dye
p1922
aVthumbs up
p1923
aVthrow frisbee
p1924
aVthomas
p1925
aVtarmac
p1926
aVtake off
p1927
aVswim trunks
p1928
aVstyrofoam
p1929
aVstrike
p1930
aVstaring
p1931
aVsquirrels
p1932
aVsquatting
p1933
aVsmartphone
p1934
aVslow down
p1935
aVsled
p1936
aVsingle
p1937
aVsinging
p1938
aVshell
p1939
aVseveral
p1940
aVseeds
p1941
aVscale
p1942
aVsailing
p1943
aVsailboats
p1944
aVrust
p1945
aVrough
p1946
aVrocky
p1947
aVrocking horse
p1948
aVremotes
p1949
aVrecently
p1950
aVprotest
p1951
aVproduce
p1952
aVprinter
p1953
aVpottery
p1954
aVpirates
p1955
aVpetting dog
p1956
aVpedestal
p1957
aVpatterned
p1958
aVout of focus
p1959
aVnot
p1960
aVno smoking
p1961
aVmain street
p1962
aVliving
p1963
aVladybug
p1964
aVkeys
p1965
aVjackets
p1966
aViris
p1967
aVhsbc
p1968
aVhit
p1969
aVhills
p1970
aVhide and seek
p1971
aVheater
p1972
aVhawaii
p1973
aVhandlebars
p1974
aVhaircut
p1975
aVgolf
p1976
aVgame console
p1977
aVfrisbees
p1978
aVfringe
p1979
aVforks
p1980
aVforehand
p1981
aVfootprints
p1982
aVfloating
p1983
aVflat screen
p1984
aVfestival
p1985
aVfashion
p1986
aVdrawing
p1987
aVdodge
p1988
aVdistance
p1989
aVdinosaur
p1990
aVdelivery
p1991
aVdb
p1992
aVcrossing
p1993
aVcourt
p1994
aVcorona
p1995
aVconverse
p1996
aVcontrollers
p1997
aVcontainer
p1998
aVclydesdale
p1999
aVclassroom
p2000
a.