(dp0
Vraining
p1
I575
sVhats
p2
I644
sVyellow
p3
I13
sVprotest
p4
I1950
sVwoods
p5
I1163
sVsleep
p6
I1172
sVasian
p7
I303
sVrailing
p8
I1058
sVfeeding
p9
I1857
sVpointing
p10
I1295
sVelectricity
p11
I463
sVswan
p12
I837
sVbike
p13
I92
sVflip flops
p14
I705
sVby window
p15
I1879
sVblanket
p16
I149
sVdell
p17
I233
sVvase
p18
I336
sVhelmet
p19
I135
sVfireplace
p20
I322
sVblue and pink
p21
I1887
sVon mantle
p22
I1825
sVschool
p23
I525
sVparrot
p24
I712
sVwooden
p25
I621
sVclothes
p26
I440
sVbicycle
p27
I305
sVtired
p28
I688
sVphones
p29
I932
sVhanging
p30
I1509
sVbacon
p31
I640
sVjapanese
p32
I1435
sVchef
p33
I736
sVstreet
p34
I147
sVn
p35
I1723
sVpanda
p36
I1337
sVblue
p37
I7
sVcooking
p38
I198
sVtow truck
p39
I1080
sVasia
p40
I781
sVlights
p41
I380
sVabove
p42
I634
sVsideways
p43
I1699
sVnew
p44
I500
sVnet
p45
I934
sVhelmets
p46
I626
sVpancakes
p47
I1297
sVmen
p48
I579
sVon train
p49
I1822
sVprotection
p50
I567
sVchina
p51
I372
sVcart
p52
I848
sV100
p53
I301
sVcardboard
p54
I1156
sV106
p55
I1905
sVmozzarella
p56
I891
sVdry
p57
I646
sVkids
p58
I763
sVluggage
p59
I307
sVleaves
p60
I270
sVparis
p61
I1715
sVsmoke
p62
I547
sVmilitary
p63
I643
sVjoshua
p64
I1650
sVbike rack
p65
I1671
sVstraw
p66
I757
sVstrap
p67
I1477
sVsliced
p68
I1481
sVjackets
p69
I1965
sVlandscape
p70
I1499
sVarmy
p71
I1105
sVsweater
p72
I655
sVmusic
p73
I1425
sVcalm
p74
I501
sVstrike
p75
I1929
sVphone
p76
I55
sVwarm
p77
I464
sVadult
p78
I484
sVsiblings
p79
I1700
sV1990
p80
I1902
sVwork
p81
I566
sVroof
p82
I855
sVbehind tree
p83
I1131
sVdecorative
p84
I1865
sVit's not
p85
I872
sVflorida
p86
I1448
sVindia
p87
I625
sVhoney
p88
I1653
sVgreen beans
p89
I1014
sVcaution
p90
I1272
sVend
p91
I1858
sV4 feet
p92
I1238
sVtravel
p93
I1369
sVnuts
p94
I1255
sV6 inches
p95
I1678
sVhappy birthday
p96
I1443
sVfar
p97
I1452
sVhot
p98
I478
sVboats
p99
I534
sVbeach
p100
I79
sVpizza
p101
I29
sVgaming
p102
I1750
sVladder
p103
I1063
sVlab
p104
I401
sVjumping
p105
I236
sVcell phone
p106
I241
sVlap
p107
I980
sVshirt
p108
I225
sVman on right
p109
I1219
sVin bowl
p110
I873
sVcroissant
p111
I1659
sVharley
p112
I733
sVtulip
p113
I1615
sVgreen
p114
I12
sVscarf
p115
I559
sV1 foot
p116
I1401
sV1000
p117
I1682
sVwind
p118
I539
sVwine
p119
I56
sVoffice
p120
I238
sVcheese
p121
I115
sVover
p122
I1819
sVlondon
p123
I320
sVoven
p124
I466
sVkeyboard
p125
I411
sVjapan
p126
I822
sVchihuahua
p127
I630
sVbackpack
p128
I306
sVavocado
p129
I1359
sVwriting
p130
I1684
sVcoffee
p131
I153
sVwhite and blue
p132
I402
sVone in front
p133
I1821
sVgiraffe
p134
I60
sVglazed
p135
I1122
sVsilver
p136
I48
sVbread
p137
I292
sVshadows
p138
I1142
sVbrushing teeth
p139
I349
sVmeat
p140
I432
sVpotatoes
p141
I760
sVwii remotes
p142
I1137
sVl
p143
I1433
sVdetroit
p144
I1864
sVrocks
p145
I319
sVarrow
p146
I1360
sVtrash can
p147
I572
sVside
p148
I1795
sVbone
p149
I274
sVlogs
p150
I396
sVunder table
p151
I881
sVsled
p152
I1935
sVmagnets
p153
I839
sVnavy
p154
I911
sVlogo
p155
I1184
sVin vase
p156
I1840
sVskate park
p157
I510
sVdriving
p158
I844
sVmotel
p159
I1726
sVsurprise
p160
I1693
sVsliding
p161
I758
sVgreen and orange
p162
I1445
sVblue and green
p163
I1157
sVfree
p164
I1390
sVon tower
p165
I1253
sVgrapes
p166
I678
sVblinders
p167
I1595
sVon chair
p168
I1254
sVshelves
p169
I1173
sVfestival
p170
I1984
sVsoda
p171
I448
sVmoving
p172
I821
sVstripe
p173
I1412
sVflying kite
p174
I202
sVveggie
p175
I1367
sVon pole
p176
I1089
sVlettuce
p177
I240
sVfire truck
p178
I804
sVin tree
p179
I1120
sVscissors
p180
I200
sVthick
p181
I1542
sVplastic
p182
I191
sVtuna
p183
I1689
sVhood
p184
I1507
sVbasketball
p185
I738
sVhydrant
p186
I825
sVspinach
p187
I342
sVtop
p188
I452
sVgirls
p189
I1123
sVblackberry
p190
I1771
sVboating
p191
I1019
sVlegs
p192
I1149
sVdogs
p193
I529
sVkiwi
p194
I914
sVurban
p195
I588
sVceiling
p196
I564
sVon grass
p197
I569
sVserve
p198
I887
sVblue jay
p199
I1886
sVcereal
p200
I1270
sVboarding
p201
I1460
sVdistance
p202
I1988
sVtree
p203
I94
sVfrench fries
p204
I1041
sVshower
p205
I689
sViron
p206
I1651
sVman on left
p207
I1340
sVbridge
p208
I393
sVdonkey
p209
I1754
sVfashion
p210
I1985
sVgiraffes
p211
I344
sVboston
p212
I749
sVmodern
p213
I521
sVglass
p214
I152
sVtalking
p215
I369
sVcactus
p216
I1878
sVperson
p217
I260
sVbleachers
p218
I1399
sVsnow
p219
I58
sVcrocs
p220
I1868
sVcircles
p221
I1127
sVgravy
p222
I1446
sVnobody
p223
I648
sVzebras
p224
I323
sVschool bus
p225
I1419
sVregular
p226
I1057
sVmouth
p227
I1181
sVnighttime
p228
I774
sVdog
p229
I26
sVcamo
p230
I1273
sVpineapple
p231
I1003
sVgermany
p232
I982
sVqueen
p233
I889
sVnorth america
p234
I978
sVchandelier
p235
I1197
sVradio
p236
I1708
sVhazy
p237
I1845
sVfork and knife
p238
I704
sVbus stop
p239
I962
sVtoast
p240
I813
sVmenu
p241
I1560
sVtrain tracks
p242
I1616
sVon right
p243
I732
sVsugar
p244
I656
sVcelery
p245
I1271
sVbush
p246
I543
sVrice
p247
I541
sVgoalie
p248
I1447
sVrectangle
p249
I220
sVplate
p250
I125
sVtiles
p251
I1691
sVsunglasses
p252
I265
sVwide
p253
I1910
sVhonda
p254
I660
sVwatch
p255
I352
sVtelevision
p256
I1140
sVcardinals
p257
I1226
sVpocket
p258
I1710
sVwatermelon
p259
I182
sVwedding
p260
I272
sVon desk
p261
I602
sVbat
p262
I128
sVbar
p263
I768
sVsailing
p264
I1942
sVbag
p265
I335
sVbad
p266
I1596
sVcoke
p267
I714
sVgrilled
p268
I1388
sVsteak
p269
I297
sVsteam
p270
I597
sV3:00
p271
I1239
sVplaystation
p272
I1711
sVt shirt
p273
I1246
sVhsbc
p274
I1967
sVeach other
p275
I1860
sVnoodles
p276
I1298
sVlots
p277
I937
sVaway
p278
I523
sVsail
p279
I1627
sVwetsuit
p280
I276
sVmud
p281
I1831
sVmug
p282
I1180
sVolympics
p283
I1719
sVyogurt
p284
I1785
sVlooking out window
p285
I1730
sVlaying down
p286
I477
sVherding
p287
I1442
sVnever
p288
I1829
sVnature
p289
I1830
sVtoothbrush
p290
I209
sVcut
p291
I1518
sVplaying game
p292
I890
sVnews
p293
I1559
sVbehind fence
p294
I1358
sVkitchen
p295
I31
sVaccident
p296
I1313
sVcow
p297
I87
sVcountry
p298
I1070
sVyamaha
p299
I1075
sVon bench
p300
I977
sVthrowing frisbee
p301
I1372
sVcherry
p302
I959
sVno hat
p303
I1721
sVtowels
p304
I835
sVblonde
p305
I178
sVgrazing
p306
I425
sVconference
p307
I1662
sVbathroom
p308
I30
sVbeef
p309
I550
sVroast beef
p310
I1545
sVon couch
p311
I542
sVparsley
p312
I789
sVbeer
p313
I139
sVbees
p314
I639
sVbasil
p315
I922
sVdots
p316
I1194
sVlife
p317
I1647
sVmushroom
p318
I649
sVnot sure
p319
I1558
sVcoffee table
p320
I1871
sVchild
p321
I341
sVcatch
p322
I1664
sVbunny
p323
I1883
sVchili
p324
I1768
sV3 feet
p325
I809
sVorange and blue
p326
I1639
sVair
p327
I555
sVinformation
p328
I1839
sVski lift
p329
I741
sVbalance
p330
I727
sVbank of america
p331
I1159
sVcane
p332
I1523
sVmexico
p333
I1493
sVsushi
p334
I1208
sVtissue
p335
I1920
sVcone
p336
I1016
sVin
p337
I1505
sVseattle
p338
I1417
sVmouse
p339
I203
sVin air
p340
I348
sVbottles
p341
I900
sVnike
p342
I174
sVtoaster
p343
I1207
sVwhite and green
p344
I1138
sVvegetable
p345
I1139
sVplates
p346
I950
sVseveral
p347
I1939
sVcouple
p348
I1763
sVleft one
p349
I1734
sVrail
p350
I1248
sVrain
p351
I353
sVhand
p352
I370
sVsoccer ball
p353
I346
sVkia
p354
I859
sVbutter
p355
I726
sVocean
p356
I179
sVburgers
p357
I1309
sVmother
p358
I1642
sVhearts
p359
I1745
sVleft
p360
I18
sVamerican flag
p361
I1529
sVphoto
p362
I1636
sVlaptop
p363
I68
sVgoggles
p364
I439
sVhuman
p365
I593
sVyes
p366
I0
sVadidas
p367
I373
sVsunflower
p368
I1325
sVelm
p369
I1192
sVin front
p370
I1013
sVphotographer
p371
I443
sVhay
p372
I351
sVmain street
p373
I1961
sVeast
p374
I694
sVhat
p375
I65
sVteddy bears
p376
I836
sVski pole
p377
I1141
sVwii controllers
p378
I1165
sVboxes
p379
I963
sVbackground
p380
I368
sVshadow
p381
I421
sV6:00
p382
I1601
sV12:30
p383
I1318
sVcoffee maker
p384
I1307
sV55
p385
I878
sVvisor
p386
I865
sVgrizzly
p387
I1510
sVkitesurfing
p388
I1737
sV50
p389
I244
sV53
p390
I1603
sVxbox
p391
I1402
sVpavement
p392
I1251
sVsteps
p393
I1373
sVnight
p394
I121
sVantique
p395
I1361
sVsurf
p396
I786
sVright
p397
I17
sVold
p398
I171
sVpeople
p399
I130
sVhe's not
p400
I1844
sVcrown
p401
I1761
sVdead
p402
I1517
sVplaying soccer
p403
I909
sVdining room
p404
I515
sVtie dye
p405
I1921
sV10 years
p406
I1683
sVbottom
p407
I508
sVpurple
p408
I63
sVice
p409
I1262
sVfog
p410
I1576
sVpetting dog
p411
I1955
sVskateboarder
p412
I622
sVchristmas
p413
I193
sVcord
p414
I1265
sVkhaki
p415
I1562
sVcorn
p416
I654
sVdalmatian
p417
I1454
sVbenches
p418
I1463
sVcowboy
p419
I725
sVribs
p420
I453
sVdinner
p421
I284
sVafternoon
p422
I144
sVoctopus
p423
I1556
sVhospital
p424
I1303
sVmantle
p425
I703
sVselfie
p426
I1174
sVfern
p427
I1450
sVdown
p428
I122
sVmagazines
p429
I1729
sVpetting
p430
I1060
sVparade
p431
I701
sVfabric
p432
I954
sVtennis
p433
I24
sVsunlight
p434
I854
sVbehind cloud
p435
I1772
sVtowing
p436
I1617
sVwhite and yellow
p437
I1471
sVhappy
p438
I175
sVfork
p439
I134
sVhead
p440
I445
sVmedium
p441
I744
sVyellow and white
p442
I754
sVsnowy
p443
I1054
sVconverse
p444
I1995
sVlanding
p445
I527
sVford
p446
I507
sVwireless
p447
I1907
sVbottom right
p448
I1885
sVsailboats
p449
I1943
sVlilies
p450
I1009
sVtrains
p451
I1918
sVinside
p452
I293
sVdollhouse
p453
I828
sV2:25
p454
I1900
sV150
p455
I1281
sVladybug
p456
I1963
sVabstract
p457
I1278
sVcleats
p458
I986
sV100 feet
p459
I1365
sVpink and white
p460
I1250
sVcandle
p461
I961
sVship
p462
I1329
sVk
p463
I1838
sVcoat rack
p464
I537
sVfloor
p465
I78
sVsetting
p466
I886
sVholding
p467
I1743
sVpapers
p468
I1486
sVtie
p469
I195
sVevergreen
p470
I1191
sVpicture
p471
I136
sVthumbs up
p472
I1922
sVhandicap
p473
I1387
sVfootball
p474
I155
sVfell
p475
I984
sVred sox
p476
I1000
sVpotato
p477
I1333
sVjacket
p478
I362
sVtime
p479
I1322
sVfor fun
p480
I1654
sVpeacock
p481
I1552
sVcoach
p482
I1589
sVchain
p483
I1269
sVplaying video games
p484
I1550
sVskis
p485
I140
sVdaytime
p486
I237
sVunder window
p487
I1404
sVskiing
p488
I39
sVchair
p489
I99
sVtoothpick
p490
I1539
sVmilk
p491
I310
sVin pond
p492
I1261
sVdouble decker
p493
I455
sVprom
p494
I1811
sV0
p495
I8
sVbicycles
p496
I707
sVon plate
p497
I513
sVbrown
p498
I11
sVsmartphone
p499
I1933
sVstring
p500
I997
sVkitten
p501
I1259
sVcook
p502
I1266
sVon wall
p503
I343
sVclouds
p504
I221
sVollie
p505
I1826
sVhawaii
p506
I1972
sVcloudy
p507
I119
sVp
p508
I675
sVsubway
p509
I1052
sVsidewalk
p510
I148
sVround
p511
I172
sVslow down
p512
I1934
sVpork
p513
I870
sVsign
p514
I288
sVshirts
p515
I1625
sVrough
p516
I1945
sVdrinks
p517
I1514
sVcargo
p518
I538
sVuniform
p519
I1614
sVtarmac
p520
I1925
sVfalling
p521
I1190
sVtransportation
p522
I717
sVno smoking
p523
I1960
sVfrench
p524
I942
sVwater
p525
I37
sVbaseball
p526
I19
sVfrosting
p527
I826
sVbox
p528
I347
sVboy
p529
I98
sVhealthy
p530
I1843
sVbow
p531
I778
sVraccoon
p532
I457
sVbob
p533
I1594
sVpillow
p534
I375
sVlove
p535
I1220
sVhiking
p536
I1744
sVrocking horse
p537
I1947
sVuphill
p538
I1023
sVsnowboard
p539
I168
sVfake
p540
I861
sVplaying wii
p541
I183
sVmarket
p542
I670
sVworking
p543
I810
sVwicker
p544
I1076
sV10:10
p545
I1534
sVfrance
p546
I792
sVgoing
p547
I1346
sViphone
p548
I1740
sVtape
p549
I1692
sVconductor
p550
I1870
sVclub
p551
I1766
sVphillies
p552
I1485
sVchocolate
p553
I230
sVdowntown
p554
I876
sVriding
p555
I540
sVfly
p556
I1853
sVibm
p557
I1438
sVtokyo
p558
I1540
sVcar
p559
I102
sVcap
p560
I1394
sVcat
p561
I27
sVsoup
p562
I338
sVcan
p563
I1128
sVferry
p564
I1304
sVpickle
p565
I931
sVheart
p566
I433
sVposing
p567
I436
sVblack and brown
p568
I1888
sVclothing
p569
I1590
sVbaseball field
p570
I965
sVpink
p571
I28
sVrays
p572
I1808
sVwinter
p573
I89
sVsailboat
p574
I838
sVmagazine
p575
I1494
sVpine
p576
I281
sV1
p577
I3
sVelephant
p578
I70
sVtile
p579
I103
sVmap
p580
I1218
sVcoming
p581
I1587
sVhuge
p582
I1652
sVflat screen
p583
I1983
sVon his head
p584
I1718
sVmac
p585
I1383
sVbirthday
p586
I145
sVtoilet paper
p587
I485
sVwetsuits
p588
I1609
sVvases
p589
I1204
sVfloral
p590
I189
sVtablecloth
p591
I926
sVman
p592
I32
sVclassroom
p593
I1999
sVhide and seek
p594
I1970
sVsurfing
p595
I49
sVnatural
p596
I871
sVneck
p597
I1179
sVcandles
p598
I683
sVred and blue
p599
I486
sVcorona
p600
I1994
sVbeehive
p601
I367
sVsandbox
p602
I296
sVski poles
p603
I253
sVtruck
p604
I156
sVafrican
p605
I794
sVbasket
p606
I345
sVtall
p607
I814
sVbunk
p608
I1667
sVserving
p609
I868
sVshoes
p610
I386
sVhaircut
p611
I1974
sVpizza cutter
p612
I1002
sVpitch
p613
I1812
sVmarshmallows
p614
I584
sVcold
p615
I210
sVbirds
p616
I217
sVpolice
p617
I300
sVmonitor
p618
I1005
sVcurly
p619
I1305
sVsmoothie
p620
I973
sVpolka dot
p621
I1294
sVplatform
p622
I1551
sVwindow
p623
I196
sVgatorade
p624
I1511
sVfarmer
p625
I1578
sVmain
p626
I1093
sVtexas
p627
I1619
sVapron
p628
I1021
sVtop left
p629
I1370
sVlunch
p630
I395
sVsafari
p631
I1628
sVhalf
p632
I1038
sVarriving
p633
I1599
sVketchup
p634
I405
sVwagon
p635
I995
sVrock
p636
I429
sVbats
p637
I1889
sVturtle
p638
I467
sVsquare
p639
I154
sVelephants
p640
I254
sVgoose
p641
I1572
sVcatching
p642
I682
sVzebra
p643
I124
sVgirl
p644
I97
sVice cream
p645
I603
sVmicrowave
p646
I298
sVcanada
p647
I447
sVliving
p648
I1962
sVcontainer
p649
I1997
sVboogie board
p650
I1275
sVtulips
p651
I673
sVdo not enter
p652
I1224
sVred and gray
p653
I1548
sVair force
p654
I1073
sVlooking
p655
I938
sVsquares
p656
I1053
sVeagle
p657
I392
sVdodgers
p658
I680
sVon counter
p659
I820
sVcars
p660
I384
sVparking lot
p661
I512
sVcalifornia
p662
I877
sVroasting marshmallows
p663
I1802
sVheadband
p664
I585
sV12:15
p665
I1468
sVheadphones
p666
I720
sVbritish
p667
I1274
sVostrich
p668
I1381
sVmotion
p669
I1832
sVbutterflies
p670
I919
sVpepperoni
p671
I313
sVswing
p672
I1620
sVfirst
p673
I1125
sVpelican
p674
I1033
sVflying
p675
I340
sVbudweiser
p676
I1668
sVsoftball
p677
I1027
sVcrib
p678
I1762
sVlong
p679
I454
sVspanish
p680
I972
sVsouthwest
p681
I1480
sVring
p682
I798
sVopen
p683
I187
sVsize
p684
I1482
sVsheep
p685
I74
sVcity
p686
I184
sVlittle
p687
I800
sV3:55
p688
I1466
sVarch
p689
I1528
sVtusks
p690
I1243
sV2
p691
I2
sVtyping
p692
I812
sVwhite
p693
I4
sVfriend
p694
I941
sVeyes
p695
I1098
sVon table
p696
I215
sVflowers
p697
I80
sV11
p698
I106
sV10
p699
I34
sV13
p700
I173
sV12
p701
I69
sV15
p702
I133
sV14
p703
I248
sV17
p704
I460
sV16
p705
I257
sV19
p706
I687
sV18
p707
I333
sV10:05
p708
I1904
sV10:00
p709
I1469
sVcoats
p710
I1663
sVvictorian
p711
I1914
sVr
p712
I1632
sVknives
p713
I1736
sVapples
p714
I205
sVfruits
p715
I1852
sVdrywall
p716
I1101
sVtractor
p717
I1244
sVzebra and giraffe
p718
I1906
sVgreyhound
p719
I1444
sVsad
p720
I638
sVbreakfast
p721
I227
sVbatting
p722
I565
sVspeakers
p723
I1696
sVswim trunks
p724
I1927
sVzoo
p725
I161
sVdining
p726
I1658
sVbutterfly
p727
I410
sV200
p728
I545
sVprinter
p729
I1952
sVtrack
p730
I1537
sVcheesecake
p731
I1268
sVamerica
p732
I684
sVamtrak
p733
I1891
sVcloth
p734
I681
sVnapkin
p735
I677
sVhungry
p736
I860
sVsunset
p737
I256
sVwii remote
p738
I222
sVsalt
p739
I1800
sVwalking
p740
I67
sVgerman
p741
I803
sVgrilling
p742
I874
sVbright
p743
I1355
sVshoe
p744
I907
sVcorner
p745
I1044
sVground
p746
I165
sVslow
p747
I599
sVright side
p748
I1803
sVabove sink
p749
I1362
sVtennis player
p750
I1025
sVon tracks
p751
I1034
sVwood
p752
I25
sVblack
p753
I9
sVblinds
p754
I549
sVwool
p755
I811
sVpumpkin
p756
I1810
sVsuitcases
p757
I996
sVbarbed wire
p758
I1232
sV1 hour
p759
I1784
sVbegging
p760
I1132
sVman and woman
p761
I1834
sVremotes
p762
I1948
sValuminum
p763
I1600
sVleather
p764
I403
sVyield
p765
I1240
sVmorning
p766
I289
sVdog bed
p767
I1755
sVred and yellow
p768
I518
sVorioles
p769
I951
sVyellow and black
p770
I967
sV5 years
p771
I1106
sVpicnic
p772
I576
sVblue and red
p773
I1104
sVseat
p774
I1418
sVcheckered
p775
I273
sVasleep
p776
I1598
sVparking
p777
I476
sVcalendar
p778
I1666
sVcolgate
p779
I1588
sVblue and yellow
p780
I571
sVglaze
p781
I1848
sVspoons
p782
I1544
sV3
p783
I5
sVdiamonds
p784
I1756
sVreading
p785
I364
sVsurfboards
p786
I451
sVliving room
p787
I50
sVvertical
p788
I903
sVscreen
p789
I1114
sVguitar
p790
I563
sVjets
p791
I1739
sVtub
p792
I1536
sVrugby
p793
I1801
sVorange juice
p794
I568
sVmany
p795
I108
sV1:30
p796
I1680
sVs
p797
I1085
sVharbor
p798
I1571
sVacross street
p799
I1234
sV12:00
p800
I1161
sVpassenger
p801
I302
sVbricks
p802
I706
sVpot
p803
I698
sVjeans
p804
I321
sV60
p805
I966
sVtwin
p806
I783
sVwine tasting
p807
I1908
sV65
p808
I1465
sV66
p809
I1677
sVpolo
p810
I642
sVforehand
p811
I1980
sVpigtails
p812
I519
sVboat
p813
I141
sVlabrador
p814
I1185
sVturkey
p815
I546
sVolives
p816
I493
sVteddy
p817
I1287
sVwest
p818
I833
sVtropical
p819
I1917
sVhelicopter
p820
I1569
sVumpire
p821
I426
sV500
p822
I1897
sVengine
p823
I1099
sVdirection
p824
I1516
sVshopping
p825
I1624
sVsquash
p826
I1328
sVwhite and orange
p827
I1366
sVlaptops
p828
I1011
sVbmw
p829
I779
sVfoggy
p830
I1124
sVcutting cake
p831
I723
sVsquirrels
p832
I1931
sVcaptivity
p833
I1877
sVpilot
p834
I1334
sVturtles
p835
I1916
sVnewspaper
p836
I979
sVmound
p837
I1725
sVno dog
p838
I1178
sVvest
p839
I902
sVcanoe
p840
I1769
sVpurse
p841
I458
sVhills
p842
I1969
sVsleeping
p843
I120
sVmiddle
p844
I311
sVgood
p845
I438
sVwestjet
p846
I1912
sVheels
p847
I1508
sVstickers
p848
I1414
sVivy
p849
I1565
sVbags
p850
I901
sVbowl
p851
I330
sVplaying baseball
p852
I505
sVmacaroni
p853
I1835
sVplaster
p854
I1059
sVpan
p855
I799
sVoil
p856
I1061
sVnest
p857
I659
sVfoam
p858
I1752
sVseagulls
p859
I787
sVrunning
p860
I304
sVfruit
p861
I177
sVstatue
p862
I971
sVclimbing
p863
I1225
sVhummingbird
p864
I1841
sVmohawk
p865
I1643
sVflip phone
p866
I1854
sVtheater
p867
I1473
sVshih tzu
p868
I1798
sVno
p869
I1
sVbottle
p870
I441
sVpitbull
p871
I1116
sVtaxi
p872
I1082
sVsummer
p873
I111
sVoutdoor
p874
I975
sV12:05
p875
I1783
sVmoney
p876
I1491
sVkrispy kreme
p877
I913
sVkneeling
p878
I1500
sVsnowboarder
p879
I1171
sVrose
p880
I427
sVdesktop
p881
I985
sVbeagle
p882
I1230
sVcolor
p883
I294
sV9:30
p884
I1676
sV4
p885
I10
sVskier
p886
I998
sVreal
p887
I361
sVfridge
p888
I620
sVstools
p889
I1479
sVdark
p890
I845
sVtraffic
p891
I882
sVmom
p892
I1382
sVcd
p893
I1456
sVorange and black
p894
I1554
sVfurniture
p895
I1851
sVtowel
p896
I337
sVnissan
p897
I1641
sVbracelet
p898
I632
sVpole
p899
I413
sVtoilet brush
p900
I1919
sVt
p901
I949
sVclay
p902
I587
sVtower
p903
I617
sVbow tie
p904
I1397
sVdoll
p905
I482
sVdole
p906
I1657
sVpickles
p907
I1144
sVred white and blue
p908
I869
sVwristband
p909
I1109
sVcurious
p910
I1867
sVnoon
p911
I239
sVmoon
p912
I611
sVexit
p913
I1656
sVforks
p914
I1979
sVknife
p915
I181
sVwheat
p916
I1049
sVbusiness
p917
I777
sVsurfboard
p918
I61
sVvolkswagen
p919
I1403
sVbroken
p920
I947
sVkite flying
p921
I404
sVon
p922
I358
sVharley davidson
p923
I915
sVcobblestone
p924
I1765
sVjeep
p925
I1012
sVfringe
p926
I1978
sVshrimp
p927
I999
sVriding bike
p928
I1115
sVtoothpaste
p929
I1406
sVroad
p930
I354
sVheater
p931
I1971
sVplaying on monkey bars
p932
I1634
sVmarshmallow
p933
I790
sVunited states
p934
I696
sVharness
p935
I1097
sVpolka dots
p936
I1380
sVburton
p937
I1881
sVlog
p938
I201
sVcats
p939
I647
sVlow
p940
I713
sVstars
p941
I1291
sVlily pads
p942
I1301
sVpaddle boarding
p943
I1818
sVhard
p944
I1570
sVon floor
p945
I470
sVtraffic lights
p946
I1790
sVpitcher
p947
I424
sVcabinet
p948
I806
sVmice
p949
I1492
sVbaseball cap
p950
I990
sVbucket
p951
I548
sVstrawberry
p952
I582
sVchristmas tree
p953
I1591
sVdirty
p954
I627
sVsuitcase
p955
I162
sVgrass
p956
I33
sVrust
p957
I1944
sVtoilet
p958
I199
sVtea set
p959
I770
sVcross country
p960
I1069
sVdeer
p961
I366
sVtennis shoes
p962
I1245
sVdeep
p963
I1585
sVbritain
p964
I1525
sVpedestal
p965
I1956
sVcream
p966
I1660
sVcollie
p967
I672
sVcabinets
p968
I1457
sVyoga
p969
I1535
sVred and white
p970
I107
sVstorage
p971
I1026
sVroses
p972
I387
sV5
p973
I14
sVtrash
p974
I666
sVpoor
p975
I1249
sVpolar
p976
I710
sVpillows
p977
I690
sVin box
p978
I1742
sVteeth
p979
I1409
sVm
p980
I1183
sVwaving
p981
I532
sV10:20
p982
I1108
sVpool
p983
I1422
sVbuilding
p984
I158
sVtiger
p985
I1024
sV2009
p986
I1901
sVremote
p987
I213
sV5:40
p988
I1602
sVblack and yellow
p989
I964
sVmask
p990
I1006
sVhusky
p991
I1121
sVfor sale
p992
I1575
sVdon't know
p993
I1583
sVall
p994
I751
sVmotocross
p995
I1217
sVchinese
p996
I208
sVceramic
p997
I496
sVmessy
p998
I1092
sVin sky
p999
I1036
sVchildren
p1000
I1017
sVcarpet
p1001
I261
sVapartment
p1002
I664
sVtv
p1003
I96
sVtail
p1004
I1083
sVon road
p1005
I1215
sVone on right
p1006
I910
sVsmile
p1007
I598
sVriding motorcycle
p1008
I1804
sVwoman
p1009
I40
sVsitting
p1010
I46
sVvery
p1011
I295
sVtent
p1012
I1474
sVfan
p1013
I613
sVfall
p1014
I186
sVsony
p1015
I883
sVlaying
p1016
I801
sVge
p1017
I1849
sVgrandfather
p1018
I1749
sVlarge
p1019
I437
sVdinosaur
p1020
I1989
sVsand
p1021
I116
sVwii controller
p1022
I350
sVsmall
p1023
I269
sVrunway
p1024
I888
sVcookies
p1025
I958
sVfence
p1026
I129
sVtea
p1027
I397
sVreins
p1028
I1056
sVburger
p1029
I1072
sVdesign
p1030
I1757
sVcasual
p1031
I1155
sVribbon
p1032
I1331
sVclock
p1033
I224
sVsun
p1034
I146
sVstool
p1035
I229
sVsuv
p1036
I815
sVdead end
p1037
I1758
sVracing
p1038
I1031
sVpublic
p1039
I771
sVfull
p1040
I652
sVtags
p1041
I1476
sVbowtie
p1042
I1396
sVsurfer
p1043
I756
sVtracks
p1044
I468
sVtrunk
p1045
I1320
sVdirections
p1046
I1515
sVstuffed animals
p1047
I905
sVsiamese
p1048
I928
sVstretching
p1049
I1413
sVrocky
p1050
I1946
sVairport
p1051
I167
sVbase
p1052
I1890
sVlasagna
p1053
I1648
sVhoodie
p1054
I1440
sVfamily
p1055
I827
sVbuses
p1056
I1458
sVafrica
p1057
I218
sVcatching frisbee
p1058
I1045
sVindoors
p1059
I494
sVtoys
p1060
I558
sVdonuts
p1061
I214
sVtexting
p1062
I417
sVpoodle
p1063
I930
sVpitching
p1064
I1176
sV6
p1065
I23
sVhorses
p1066
I137
sVflat
p1067
I1152
sVdiamond
p1068
I628
sVdoor
p1069
I407
sVfaucet
p1070
I1451
sVflag
p1071
I528
sVstick
p1072
I906
sVlemons
p1073
I1732
sVtown
p1074
I1079
sVgrill
p1075
I552
sVnone
p1076
I22
sVklm
p1077
I1501
sVred and green
p1078
I759
sVhit ball
p1079
I651
sV1:15
p1080
I1782
sVclock tower
p1081
I663
sVv
p1082
I1612
sVseagull
p1083
I422
sVmale
p1084
I82
sVmarble
p1085
I650
sVgreen and red
p1086
I1263
sVhamburger
p1087
I586
sVwallet
p1088
I1913
sVcows
p1089
I151
sVpond
p1090
I334
sVairplane
p1091
I190
sVdress
p1092
I679
sVicing
p1093
I1343
sVblueberries
p1094
I1398
sVcourt
p1095
I1993
sVnot very
p1096
I1091
sVgoat
p1097
I1015
sVus airways
p1098
I1789
sVno parking
p1099
I691
sVplant
p1100
I143
sVsandwich
p1101
I100
sVpetting cat
p1102
I1637
sVwater bottle
p1103
I1166
sVplane
p1104
I117
sVwaves
p1105
I755
sVhorizontal
p1106
I1095
sVa
p1107
I544
sVshort
p1108
I242
sVcoat
p1109
I1154
sVvolleyball
p1110
I1242
sVdragon
p1111
I1581
sVcoal
p1112
I1351
sVshore
p1113
I1702
sVchopsticks
p1114
I829
sVshade
p1115
I479
sVhello kitty
p1116
I1096
sVegg
p1117
I945
sVplaying
p1118
I113
sVmexican
p1119
I1182
sVhandlebars
p1120
I1973
sVmercedes-benz
p1121
I1727
sVsoon
p1122
I1697
sVpaper
p1123
I211
sV10:55
p1124
I1903
sVon skateboard
p1125
I1824
sVsigns
p1126
I884
sVjump rope
p1127
I624
sVsmiling
p1128
I382
sV24
p1129
I327
sV25
p1130
I160
sV26
p1131
I923
sV27
p1132
I685
sV20
p1133
I91
sV21
p1134
I556
sV22
p1135
I665
sV23
p1136
I686
sV28
p1137
I729
sV29
p1138
I992
sVsoccer
p1139
I53
sVsauce
p1140
I742
sVevening
p1141
I207
sVfood
p1142
I41
sVhot dogs
p1143
I385
sVtalking on phone
p1144
I359
sVfloating
p1145
I1982
sVcupcake
p1146
I1350
sVpeeing
p1147
I1815
sVstarbucks
p1148
I867
sVweeds
p1149
I1284
sVfoot
p1150
I1348
sVkayaking
p1151
I1186
sVplaying with dog
p1152
I1296
sVsnowboards
p1153
I1293
sVstopped
p1154
I1478
sVtrailer
p1155
I1405
sVengland
p1156
I287
sVpirates
p1157
I1954
sVhouse
p1158
I280
sVfish
p1159
I180
sVwhite and gray
p1160
I1022
sVwires
p1161
I993
sVair canada
p1162
I793
sVflower
p1163
I309
sVtennis ball
p1164
I573
sVpower lines
p1165
I1211
sVpigeon
p1166
I772
sVdugout
p1167
I1100
sVrace
p1168
I1709
sVsafety
p1169
I339
sVhill
p1170
I1189
sV7
p1171
I35
sVhighway
p1172
I1385
sVvery tall
p1173
I924
sVforeground
p1174
I1042
sVdirt
p1175
I159
sVporcelain
p1176
I819
sVpug
p1177
I583
sVhouses
p1178
I1187
sVtoy
p1179
I491
sVcookie
p1180
I1520
sVbushes
p1181
I737
sVdishwasher
p1182
I1195
sVcomputers
p1183
I1267
sVamerican
p1184
I275
sVw
p1185
I796
sVdaisy
p1186
I489
sVsnowboarding
p1187
I77
sVadvertisement
p1188
I1893
sVwine glasses
p1189
I1241
sVurinal
p1190
I1688
sVfeet
p1191
I1153
sVweather vane
p1192
I1685
sVcups
p1193
I1102
sVmaple
p1194
I1007
sVkoi
p1195
I745
sVhorse
p1196
I54
sVjet
p1197
I488
sVbroccoli
p1198
I64
sVpaint
p1199
I506
sVleash
p1200
I1118
sVstation
p1201
I816
sVwashington dc
p1202
I1077
sVbanana
p1203
I83
sVtennis rackets
p1204
I948
sVon track
p1205
I1823
sVbehind
p1206
I780
sVhotel
p1207
I495
sVpark
p1208
I166
sVdrain
p1209
I1862
sV9:45
p1210
I1895
sVsteaks
p1211
I1327
sVstairs
p1212
I740
sVreflection
p1213
I718
sVking
p1214
I1502
sVgrocery
p1215
I1748
sVb
p1216
I739
sVtop right
p1217
I1538
sVemirates
p1218
I944
sVstore
p1219
I641
sVcatch ball
p1220
I1876
sVoutdoors
p1221
I562
sVtoward
p1222
I1321
sVuniforms
p1223
I1613
sVcurtains
p1224
I553
sV10 feet
p1225
I782
sV1:05
p1226
I1317
sVjuice
p1227
I802
sVgraffiti
p1228
I328
sVyellow and red
p1229
I852
sVabove stove
p1230
I1464
sVlid
p1231
I1257
sVmountain
p1232
I246
sVwilson
p1233
I377
sVdancing
p1234
I398
sVcamouflage
p1235
I1227
sVcouch
p1236
I75
sVsandwiches
p1237
I668
sVplay
p1238
I1032
sVtowards
p1239
I1112
sVelectric
p1240
I378
sVsingles
p1241
I1623
sVeggs
p1242
I595
sV350
p1243
I1779
sVsalmon
p1244
I1378
sVcoca cola
p1245
I419
sVcigarette
p1246
I917
sV75
p1247
I1530
sVbridle
p1248
I1593
sVmoss
p1249
I1427
sV70
p1250
I1235
sVnothing
p1251
I16
sVrefrigerator
p1252
I355
sVpatterned
p1253
I1957
sVwindows
p1254
I363
sVclear
p1255
I101
sVtongs
p1256
I785
sVred and black
p1257
I561
sVtrain station
p1258
I461
sVclean
p1259
I490
sVstones
p1260
I1694
sVthomas
p1261
I1924
sVgolf
p1262
I1975
sVasphalt
p1263
I554
sVsparrow
p1264
I674
sVdirt bike
p1265
I1393
sVfreight
p1266
I1151
sVman's
p1267
I1339
sVblender
p1268
I615
sVscooter
p1269
I263
sVchiquita
p1270
I1455
sV8
p1271
I36
sVcircle
p1272
I317
sVobama
p1273
I1090
sVgiants
p1274
I895
sVshepherd
p1275
I1376
sVtriangle
p1276
I357
sVsunny
p1277
I52
sVtrees
p1278
I86
sVplay tennis
p1279
I1712
sVbatter
p1280
I423
sVno one
p1281
I126
sVtaking off
p1282
I434
sVcatcher
p1283
I329
sVmotorcycles
p1284
I371
sVtabby
p1285
I418
sVgloves
p1286
I481
sVx
p1287
I1162
sVriver
p1288
I462
sVon ground
p1289
I414
sVart
p1290
I807
sVthrowing
p1291
I1081
sVlion
p1292
I1221
sVunsure
p1293
I1111
sVarm
p1294
I851
sVbarn
p1295
I1277
sVpictures
p1296
I391
sVcrosswalk
p1297
I897
sVeurope
p1298
I1043
sVpaisley
p1299
I1716
sVrecently
p1300
I1949
sVpepsi
p1301
I577
sVboth
p1302
I299
sVc
p1303
I849
sVrestaurant
p1304
I250
sVbaseball bat
p1305
I750
sVroman
p1306
I908
sV2:35
p1307
I1606
sVlanyard
p1308
I1498
sVbell
p1309
I1020
sVsweet
p1310
I1169
sVchurch
p1311
I389
sVgoats
p1312
I1347
sVbelt
p1313
I1158
sVpc
p1314
I1638
sVpeppers
p1315
I430
sVbrick
p1316
I110
sVempty
p1317
I896
sVpm
p1318
I1423
sVresting
p1319
I258
sVvans
p1320
I1167
sVram
p1321
I1707
sVsquirrel
p1322
I312
sVpassengers
p1323
I1145
sVfire
p1324
I283
sVgas
p1325
I406
sVorange and yellow
p1326
I1820
sVawake
p1327
I1597
sVplants
p1328
I498
sVvery old
p1329
I1611
sVfur
p1330
I1065
sVraw
p1331
I1631
sVsolid
p1332
I252
sVstraight
p1333
I469
sVwhite and brown
p1334
I795
sVrope
p1335
I428
sVbikini
p1336
I1130
sV5:00
p1337
I1777
sVfun
p1338
I940
sVbiking
p1339
I1357
sVrobin
p1340
I1629
sVknee pads
p1341
I1384
sV5:05
p1342
I1679
sVducks
p1343
I388
sVdecoration
p1344
I483
sVnightstand
p1345
I1828
sVleaving
p1346
I1431
sVchase
p1347
I1308
sVitaly
p1348
I823
sVfedora
p1349
I764
sVcumulus
p1350
I847
sV9
p1351
I71
sVkeys
p1352
I1964
sVleopard
p1353
I1731
sVcement
p1354
I805
sVwhite and red
p1355
I635
sVcucumber
p1356
I956
sVcleaning
p1357
I898
sVsandals
p1358
I399
sVbrushing hair
p1359
I1884
sVbeanie
p1360
I1047
sVmouse pad
p1361
I1724
sVolder
p1362
I1488
sVhorse racing
p1363
I1439
sVconcrete
p1364
I164
sVflags
p1365
I953
sVyankees
p1366
I1135
sVlistening
p1367
I1429
sVpigeons
p1368
I1087
sVin field
p1369
I1436
sVdb
p1370
I1991
sVlexus
p1371
I1496
sVping pong
p1372
I1813
sVloading
p1373
I1428
sVtablet
p1374
I1410
sVcup
p1375
I332
sVlady
p1376
I1649
sVstainless steel
p1377
I708
sVholding it
p1378
I1188
sVgrapefruit
p1379
I1345
sVkites
p1380
I132
sVeaster
p1381
I1349
sVaustralia
p1382
I1233
sVradiator
p1383
I1421
sVbig
p1384
I715
sVskateboards
p1385
I590
sVbib
p1386
I1276
sVgame
p1387
I734
sVprivate
p1388
I1001
sVbrown and black
p1389
I1395
sVformal
p1390
I1512
sVkayak
p1391
I1342
sVd
p1392
I1759
sVsemi
p1393
I1626
sVtoyota
p1394
I834
sVglove
p1395
I316
sVfly kite
p1396
I1391
sVbaseball glove
p1397
I1773
sVbamboo
p1398
I1526
sV20 feet
p1399
I1316
sVgoogle
p1400
I1389
sVcones
p1401
I1071
sVspring
p1402
I360
sVback
p1403
I633
sVpalm
p1404
I243
sVblue and white
p1405
I206
sVmirror
p1406
I247
sVat camera
p1407
I728
sVscale
p1408
I1941
sVsinging
p1409
I1937
sVbritish airways
p1410
I1228
sVpen
p1411
I730
sVsneakers
p1412
I379
sVgolden retriever
p1413
I841
sV12:55
p1414
I1533
sVlaughing
p1415
I791
sVin basket
p1416
I1567
sVon sidewalk
p1417
I762
sVeating
p1418
I57
sV300
p1419
I1780
sVin background
p1420
I1437
sVrug
p1421
I142
sVnowhere
p1422
I226
sVsanta
p1423
I1210
sV5 feet
p1424
I1236
sVcomcast
p1425
I1764
sVmcdonald's
p1426
I892
sVno cat
p1427
I1722
sVbeans
p1428
I1046
sVpolar bear
p1429
I761
sVdaisies
p1430
I846
sVgarbage
p1431
I983
sVwater skiing
p1432
I502
sVto eat
p1433
I1792
sVrackets
p1434
I1809
sVdownhill
p1435
I514
sVwine bottle
p1436
I1164
sVjockey
p1437
I1434
sVlily pad
p1438
I1495
sVapartments
p1439
I1775
sVdunkin donuts
p1440
I695
sVfast
p1441
I843
sVhomemade
p1442
I1842
sVsuit
p1443
I608
sVforward
p1444
I450
sVmountains
p1445
I234
sVhimself
p1446
I1568
sVhawaiian
p1447
I1746
sVposter
p1448
I1549
sVt-shirt
p1449
I1084
sVboys
p1450
I1129
sVtennis court
p1451
I465
sVdelta
p1452
I522
sVcrane
p1453
I957
sVcalico
p1454
I918
sVpenguin
p1455
I1814
sVclydesdale
p1456
I1998
sVskull
p1457
I1375
sVfries
p1458
I533
sVup
p1459
I150
sVus
p1460
I1472
sVplanes
p1461
I610
sVwine glass
p1462
I472
sVfried
p1463
I1751
sVgeese
p1464
I1150
sVadults
p1465
I1201
sVmetal
p1466
I104
sVsepia
p1467
I1799
sVsingle
p1468
I1936
sVwarning
p1469
I1319
sVcurb
p1470
I1760
sVflying kites
p1471
I594
sVcotton
p1472
I671
sVrainbow
p1473
I331
sVrainy
p1474
I390
sVlemon
p1475
I480
sVpeach
p1476
I1213
sVpeace
p1477
I1088
sVvalentine's day
p1478
I1687
sVbrushing
p1479
I1669
sVspectators
p1480
I1695
sVmustard
p1481
I520
sVabove fireplace
p1482
I1894
sVlufthansa
p1483
I1008
sVdesert
p1484
I946
sVin car
p1485
I1504
sVpottery
p1486
I1953
sVtake off
p1487
I1926
sVland
p1488
I1119
sVe
p1489
I1126
sVpedestrians
p1490
I1816
sVcooked
p1491
I1661
sV2000
p1492
I1280
sVtaking picture
p1493
I492
sVparking meter
p1494
I511
sVfresh
p1495
I1574
sVberries
p1496
I1462
sVstroller
p1497
I1326
sVwindy
p1498
I1283
sVgo
p1499
I604
sVvery high
p1500
I1788
sVpizza hut
p1501
I1713
sVgold
p1502
I291
sVwindowsill
p1503
I1786
sVyoung
p1504
I376
sVnose
p1505
I1490
sVcasserole
p1506
I1665
sVfrisbees
p1507
I1977
sVgravel
p1508
I981
sVmonkey bars
p1509
I266
sV11:30
p1510
I1608
sVgarden
p1511
I1573
sVoutside
p1512
I105
sVdessert
p1513
I381
sVwave
p1514
I994
sVspoon
p1515
I251
sVdrinking
p1516
I326
sVon building
p1517
I976
sVlegos
p1518
I893
sVasparagus
p1519
I1160
sVgray and white
p1520
I721
sVchoppy
p1521
I1874
sVrack
p1522
I1379
sVsmaller
p1523
I1622
sVcrow
p1524
I1586
sVham
p1525
I570
sVboots
p1526
I474
sVair france
p1527
I1312
sVjump
p1528
I746
sVtraveling
p1529
I1078
sVpajamas
p1530
I1553
sVby tree
p1531
I1524
sVindex
p1532
I1741
sVsausage
p1533
I591
sVcupcakes
p1534
I1196
sVpower
p1535
I1484
sVpaintings
p1536
I1717
sVchicago
p1537
I862
sVpaddle
p1538
I856
sVwindow sill
p1539
I1136
sVwaiting
p1540
I853
sVindian
p1541
I824
sVpoles
p1542
I709
sVfisheye
p1543
I1655
sVchain link
p1544
I830
sVbird
p1545
I85
sVleg
p1546
I1733
sVcommercial
p1547
I916
sVraspberries
p1548
I1706
sVsink
p1549
I325
sV39
p1550
I1400
sV38
p1551
I752
sV33
p1552
I1133
sV32
p1553
I1107
sV31
p1554
I1279
sV30
p1555
I219
sV37
p1556
I1467
sV36
p1557
I1605
sV35
p1558
I753
sV34
p1559
I1074
sVvideo game
p1560
I1110
sVreds
p1561
I1806
sVshovel
p1562
I637
sVapple
p1563
I51
sVcell phones
p1564
I1198
sVsee saw
p1565
I1028
sVwii
p1566
I59
sVriding horse
p1567
I1704
sVmotor
p1568
I1338
sVduck
p1569
I285
sVoval
p1570
I487
sVsan francisco
p1571
I929
sVtools
p1572
I1791
sVcloud
p1573
I629
sVlime
p1574
I1646
sVstanding
p1575
I47
sVunder tree
p1576
I880
sVchina airlines
p1577
I1521
sVusa
p1578
I176
sVfrog
p1579
I735
sVcamera
p1580
I95
sVplaying frisbee
p1581
I394
sVstone
p1582
I231
sVvisibility
p1583
I1787
sVtrain
p1584
I72
sVrabbit
p1585
I473
sVbaby
p1586
I188
sVwhite and black
p1587
I596
sVwomen
p1588
I863
sVballs
p1589
I1672
sVanimals
p1590
I808
sVsalad
p1591
I259
sVf
p1592
I1513
sVride
p1593
I1420
sVdonut
p1594
I118
sVcarrot
p1595
I318
sVthin
p1596
I1050
sVshoulder
p1597
I1797
sVshower curtain
p1598
I1796
sVabcd
p1599
I991
sVi don't know
p1600
I747
sVketchup and mustard
p1601
I1738
sVhalloween
p1602
I939
sVhigh
p1603
I661
sVhammer time
p1604
I1747
sVtag
p1605
I866
sVhit
p1606
I1968
sVtan
p1607
I73
sVonions
p1608
I702
sVlamb
p1609
I1432
sVunited
p1610
I551
sVskirt
p1611
I927
sVtoaster oven
p1612
I1206
sVboxing
p1613
I1103
sVlamp
p1614
I446
sVforest
p1615
I842
sVbandana
p1616
I832
sVstand
p1617
I1292
sVbuildings
p1618
I850
sVblocks
p1619
I516
sVfarm
p1620
I693
sVstop
p1621
I66
sVwallpaper
p1622
I1686
sVties
p1623
I1323
sVcabbage
p1624
I1354
sVhawk
p1625
I1344
sVterrier
p1626
I667
sVtomato
p1627
I255
sVlight
p1628
I235
sVcounter
p1629
I271
sVlines
p1630
I1430
sVrobot
p1631
I560
sVbakery
p1632
I769
sVchevrolet
p1633
I1522
sVnecklace
p1634
I578
sVswimming
p1635
I503
sVstuffed animal
p1636
I636
sVmustache
p1637
I1299
sVbathing
p1638
I1310
sV8 feet
p1639
I1896
sVlicense plate
p1640
I1837
sVspatula
p1641
I1113
sVtaking pictures
p1642
I1475
sVmotorcycle
p1643
I81
sVmutt
p1644
I1062
sVhorns
p1645
I1094
sVlg
p1646
I1258
sVrelish
p1647
I1630
sVsquatting
p1648
I1932
sVorange
p1649
I21
sV2016
p1650
I1202
sV2011
p1651
I1315
sV2010
p1652
I1048
sV2013
p1653
I1364
sV2012
p1654
I1134
sVdad
p1655
I1264
sVthrow frisbee
p1656
I1923
sVbud light
p1657
I1459
sVnokia
p1658
I1004
sVoranges
p1659
I279
sVdock
p1660
I766
sVcutting
p1661
I653
sVpowdered sugar
p1662
I1633
sVsocks
p1663
I1209
sValaska
p1664
I1892
sVhands
p1665
I662
sVfront
p1666
I449
sV1:55
p1667
I1607
sVday
p1668
I170
sVto see
p1669
I1541
sVslide
p1670
I420
sVcrossing
p1671
I1992
sVtray
p1672
I784
sVglasses
p1673
I204
sVon bed
p1674
I676
sVglobe
p1675
I1847
sVto left
p1676
I1407
sVmulticolored
p1677
I1300
sVseesaw
p1678
I697
sVbooks
p1679
I286
sVsweatshirt
p1680
I1621
sVshearing
p1681
I1377
sVout
p1682
I933
sVparasailing
p1683
I657
sVbrown and white
p1684
I314
sVelectronics
p1685
I1453
sVwindsurfing
p1686
I1470
sVred
p1687
I6
sVshut
p1688
I1701
sVumbrella
p1689
I90
sVipod
p1690
I1566
sVdoubles
p1691
I1582
sVjumping rope
p1692
I692
sVno number
p1693
I1148
sVbackwards
p1694
I1527
sVg
p1695
I1850
sVskateboard
p1696
I42
sVyarn
p1697
I315
sVproduce
p1698
I1951
sVears
p1699
I1579
sVvegetables
p1700
I245
sVsouth
p1701
I818
sVtennis racket
p1702
I157
sVowner
p1703
I1214
sVumbrellas
p1704
I409
sVred, white, blue
p1705
I1807
sVmonkey
p1706
I935
sVprivacy
p1707
I1332
sVbears
p1708
I475
sVunknown
p1709
I262
sVpots
p1710
I1175
sVbig ben
p1711
I767
sVnew york
p1712
I383
sVblue and black
p1713
I1356
sVbeard
p1714
I716
sVshell
p1715
I1938
sVlot
p1716
I290
sVshorts
p1717
I277
sVbulldog
p1718
I899
sVshelf
p1719
I435
sVshallow
p1720
I885
sV6 feet
p1721
I1363
sVyellow and blue
p1722
I607
sVbranches
p1723
I1670
sVsteel
p1724
I609
sV2:50
p1725
I1781
sVbed
p1726
I114
sVby door
p1727
I1880
sVgame console
p1728
I1976
sVwheelchair
p1729
I1911
sVbroadway
p1730
I1592
sVcarrots
p1731
I194
sVone way
p1732
I623
sVcurved
p1733
I1866
sVmicrophone
p1734
I936
sVsprinkles
p1735
I817
sVdishes
p1736
I1068
sVbagel
p1737
I1673
sVlily
p1738
I1302
sVsoap
p1739
I797
sVdrinking wine
p1740
I1861
sVkickstand
p1741
I1260
sVlogitech
p1742
I1836
sVsedan
p1743
I1483
sVsmiley face
p1744
I1794
sVhot dog
p1745
I112
sVthanksgiving
p1746
I1618
sVface
p1747
I776
sVstrawberries
p1748
I589
sVlos angeles
p1749
I1341
sVmovie
p1750
I1426
sVpainting
p1751
I601
sVblack and gray
p1752
I1229
sVteddy bear
p1753
I127
sVwatching tv
p1754
I456
sVkite
p1755
I44
sVstove
p1756
I442
sVindoor
p1757
I1503
sVbikes
p1758
I531
sVparked
p1759
I719
sVbedroom
p1760
I131
sVottoman
p1761
I857
sVchicken
p1762
I216
sVon man
p1763
I1640
sVtire
p1764
I1286
sVnot possible
p1765
I952
sVsunflowers
p1766
I1411
sVplaying tennis
p1767
I324
sVpiano
p1768
I1335
sVon sink
p1769
I1555
sVdodge
p1770
I1987
sVhandle
p1771
I612
sVwatching
p1772
I557
sVphotography
p1773
I1714
sVstripes
p1774
I163
sVbear
p1775
I93
sVcubs
p1776
I1519
sVwords
p1777
I968
sVstriped
p1778
I374
sVchips
p1779
I987
sVstyrofoam
p1780
I1928
sVgray
p1781
I15
sVtrucks
p1782
I1368
sVh
p1783
I1846
sVdog and cat
p1784
I1863
sVmercedes
p1785
I669
sVroman numerals
p1786
I1086
sVcomputer
p1787
I268
sVdriveway
p1788
I1580
sVskateboarding
p1789
I38
sVracket
p1790
I356
sVholding hands
p1791
I1441
sVgreen and white
p1792
I581
sV4:50
p1793
I1898
sVwire
p1794
I416
sV12 feet
p1795
I1681
sVcloset
p1796
I1767
sVmeatballs
p1797
I1833
sVcarriage
p1798
I631
sVidentification
p1799
I1506
sVclosed
p1800
I223
sVneither
p1801
I365
sVflickr
p1802
I1856
sVpants
p1803
I731
sVblack and red
p1804
I921
sVcutting board
p1805
I530
sVon rug
p1806
I773
sVblack and white
p1807
I45
sVstaring
p1808
I1930
sVski resort
p1809
I1416
sVon top
p1810
I1487
sVramp
p1811
I600
sVout of focus
p1812
I1958
sVwillow
p1813
I1909
sVvent
p1814
I1203
sVgone
p1815
I722
sVwall
p1816
I109
sVdenim
p1817
I1584
sVwalk
p1818
I864
sVtable
p1819
I43
sVin water
p1820
I412
sVtank top
p1821
I925
sVtraffic light
p1822
I1205
sVcurtain
p1823
I748
sVorange and white
p1824
I499
sVcircus
p1825
I1873
sVpainted
p1826
I1817
sVone on left
p1827
I1252
sVairplanes
p1828
I1675
sVcontroller
p1829
I408
sVright one
p1830
I1546
sVbull
p1831
I1199
sVmulti
p1832
I858
sVplaid
p1833
I232
sVplain
p1834
I699
sVvanilla
p1835
I517
sVwild
p1836
I616
sVbathtub
p1837
I1231
sVtoothbrushes
p1838
I1168
sVon street
p1839
I1035
sVrooster
p1840
I1703
sVgothic
p1841
I1040
sVswinging
p1842
I904
sVarabic
p1843
I1674
sVtattoo
p1844
I1051
sVballoon
p1845
I1774
sVcross
p1846
I724
sVspeaker
p1847
I1374
sVflour
p1848
I1577
sVparty
p1849
I700
sVnorth face
p1850
I1720
sVtomatoes
p1851
I536
sVball
p1852
I138
sVdusk
p1853
I645
sVdrink
p1854
I955
sVoctagon
p1855
I658
sVhair dryer
p1856
I1039
sVoveralls
p1857
I1424
sVcollar
p1858
I415
sVstreet light
p1859
I1290
sVoff
p1860
I431
sVcenter
p1861
I988
sVyellow and green
p1862
I1282
sVovercast
p1863
I212
sVgerman shepherd
p1864
I775
sVmen's
p1865
I1728
sVfighting
p1866
I1449
sVenglish
p1867
I192
sVdrawing
p1868
I1986
sVon left
p1869
I400
sVbananas
p1870
I123
sV42
p1871
I1531
sVmaple leaf
p1872
I1561
sVold man
p1873
I1489
sVnot
p1874
I1959
sVclocks
p1875
I1872
sVfishing
p1876
I605
sVfire hydrant
p1877
I267
sVhappiness
p1878
I1386
sVtoilets
p1879
I1690
sVfield
p1880
I249
sVresidential
p1881
I1705
sVsky
p1882
I169
sVlake
p1883
I459
sVbench
p1884
I76
sVwet
p1885
I969
sVski
p1886
I618
sVstreet sign
p1887
I1289
sVdesk
p1888
I278
sVpropeller
p1889
I1143
sVpier
p1890
I1177
sVmotorola
p1891
I1216
sVonion
p1892
I1146
sVchairs
p1893
I614
sVsofa
p1894
I1170
sVcandy
p1895
I960
sVcontrollers
p1896
I1996
sVgarage
p1897
I1064
sVsoft
p1898
I1415
sVitalian
p1899
I894
sVon blanket
p1900
I743
sVscared
p1901
I1247
sVlibrary
p1902
I1010
sVhair
p1903
I308
sVcan't tell
p1904
I1353
sVhome
p1905
I282
sVleaf
p1906
I1497
sVgreen and yellow
p1907
I580
sVkettle
p1908
I1563
sVfedex
p1909
I765
sVearrings
p1910
I1859
sVblurry
p1911
I1461
sVpepper
p1912
I788
sVmitt
p1913
I1644
sVbowling
p1914
I831
sVlighthouse
p1915
I840
sVpeas
p1916
I1117
sVpasta
p1917
I711
sVfluorescent
p1918
I1392
sViris
p1919
I1966
sVus airways express
p1920
I1915
sVsaddle
p1921
I1029
sVcatch frisbee
p1922
I1875
sVrodeo
p1923
I1330
sVseeds
p1924
I1940
sVbeige
p1925
I228
sVblue and gray
p1926
I1770
sVtongue
p1927
I1371
sVpastries
p1928
I1336
sVowl
p1929
I444
sVletters
p1930
I1222
sVstop sign
p1931
I524
sVwashington
p1932
I970
sVcat and dog
p1933
I1352
sVmushrooms
p1934
I471
sVbrush
p1935
I1018
sVfemale
p1936
I88
sVon shelf
p1937
I1147
sVvan
p1938
I509
sVmuseum
p1939
I912
sVcontinental
p1940
I1869
sVsuzuki
p1941
I1543
sVbackhand
p1942
I1311
sVred bull
p1943
I1547
sVnorth
p1944
I526
sVbus
p1945
I84
sVhp
p1946
I1037
sVsweatband
p1947
I1793
sVdelivery
p1948
I1990
sVconstruction
p1949
I1306
sVbun
p1950
I920
sVbookshelf
p1951
I989
sVear
p1952
I1753
sVeat
p1953
I1067
sVnot there
p1954
I1557
sVsmooth
p1955
I1698
sVflip
p1956
I1855
sVbelow
p1957
I1200
sVcake
p1958
I62
sVskating
p1959
I1055
sVwebsite
p1960
I1610
sVsupreme
p1961
I1324
sVtissues
p1962
I1408
sVpie
p1963
I264
sVmaroon
p1964
I1645
sVpig
p1965
I1212
sVutensils
p1966
I1285
sVreferee
p1967
I1805
sV80
p1968
I1776
sVrelaxing
p1969
I1030
sV48
p1970
I1604
sV46
p1971
I1899
sV47
p1972
I1778
sV44
p1973
I1237
sV45
p1974
I879
sVoak
p1975
I197
sV43
p1976
I1314
sV40
p1977
I535
sV41
p1978
I1532
sVbook
p1979
I185
sVsunrise
p1980
I1288
sVbranch
p1981
I497
sVfinch
p1982
I943
sVgranite
p1983
I619
sVgas station
p1984
I1223
sVponytail
p1985
I504
sVdresser
p1986
I1193
sVfrisbee
p1987
I20
sVstar
p1988
I574
sVpink and yellow
p1989
I1635
sVfootprints
p1990
I1981
sVleft and right
p1991
I1735
sVfoil
p1992
I1066
sVjetblue
p1993
I1564
sVnintendo
p1994
I1256
sVno 1
p1995
I1827
sVfriends
p1996
I875
sVsamsung
p1997
I592
sV2 feet
p1998
I606
sVrural
p1999
I974
sVbuoy
p2000
I1882
s.